(lp0
(F0.0
F0.0
tp1
a(F0.0
F0.0
tp2
a(F0.0
F0.0
tp3
a(F0.0
F0.0
tp4
a(F0.0
F0.0
tp5
a(F0.0
F0.0
tp6
a(F0.0
F0.0
tp7
a(F0.0
F0.0
tp8
a(F0.0
F0.0
tp9
a(F0.0
F0.0
tp10
a(F0.0
F0.0
tp11
a(F0.0
F0.0
tp12
a(F0.0
F0.0
tp13
a(F0.0
F0.0
tp14
a(F0.0
F0.0
tp15
a(F0.0
F0.0
tp16
a(F0.0
F0.0
tp17
a(F0.0
F0.0
tp18
a(F0.0
F0.0
tp19
a(F0.0
F0.0
tp20
a(F0.0
F0.0
tp21
a(F0.0
F0.0
tp22
a(F0.0
F0.0
tp23
a(F0.0
F0.0
tp24
a(F0.0
F0.0
tp25
a(F0.0
F0.0
tp26
a(F0.0
F0.0
tp27
a(F0.0
F0.0
tp28
a(F0.0
F0.0
tp29
a(F0.0040028347609406805
F-7.225024690688945e-07
tp30
a(F0.020106252262348266
F-3.531675380559448e-06
tp31
a(F0.04186771881841714
F-6.506786912006962e-06
tp32
a(F0.0705418207902781
F-1.279076594099996e-05
tp33
a(F0.10653848462240777
F-2.0270659440654793e-05
tp34
a(F0.20584108756485817
F-4.166506924633264e-05
tp35
a(F0.23465259051792345
F-4.72671176376113e-05
tp36
a(F0.33671281077390874
F-0.00011202520726390427
tp37
a(F0.4120809453749467
F-0.000245144145439257
tp38
a(F0.5434878221601952
F-0.001183212574590794
tp39
a(F0.6405997680709492
F-0.0022850913860640596
tp40
a(F0.801491445558232
F-0.005740776202472101
tp41
a(F0.9164036088855201
F-0.008796374954417468
tp42
a(F1.1720761252399492
F-0.02036992013911389
tp43
a(F1.2399617438491395
F-0.02411740115219014
tp44
a(F1.4581878982941516
F-0.04047925549557666
tp45
a(F1.612738397110048
F-0.05412137474815161
tp46
a(F1.8597319762930056
F-0.0824663896280211
tp47
a(F2.0344109650564492
F-0.10538572400629904
tp48
a(F2.30887966911411
F-0.15023251016040323
tp49
a(F2.497183347711884
F-0.18472211221507806
tp50
a(F2.876553939071751
F-0.2669560259931762
tp51
a(F2.9714321617376855
F-0.28890942000692954
tp52
a(F3.3512225690485513
F-0.383326367296819
tp53
a(F3.4461916263720607
F-0.4074219933511842
tp54
a(F3.8266882985515016
F-0.5052397861120386
tp55
a(F3.921860866974624
F-0.529810559788393
tp56
a(F4.303061205035574
F-0.6289894450350318
tp57
a(F4.398370221152929
F-0.6538778403402558
tp58
a(F4.779731227905504
F-0.7541280737521242
tp59
a(F4.875066659772186
F-0.7792810270935314
tp60
a(F5.256245841052204
F-0.8805408020623122
tp61
a(F5.351481073416826
F-0.90593631312751
tp62
a(F5.7324621872857175
F-1.0082341680829132
tp63
a(F5.827712809270691
F-1.0339088085755088
tp64
a(F6.3042576148537
F-1.163438386370689
tp65
a(F6.3042576148537
F-1.163438386370689
tp66
a(F6.68438977012265
F-1.2691809953067061
tp67
a(F6.874029359929571
F-1.323196312430261
tp68
a(F7.158001887164749
F-1.4066777504775507
tp69
a(F7.44306598706636
F-1.4912863397888731
tp70
a(F7.632256350611612
F-1.5477133557152578
tp71
a(F7.821373616401132
F-1.6044362876370835
tp72
a(F8.010411277555582
F-1.661400319022344
tp73
a(F8.199328156931596
F-1.718586973272144
tp74
a(F8.482740793646277
F-1.804950449238013
tp75
a(F8.766022608339647
F-1.891822397347463
tp76
a(F9.049220147332123
F-1.9790603084284752
tp77
a(F9.143591481122757
F-2.0082244687766373
tp78
a(F9.426756251050053
F-2.096221837492672
tp79
a(F9.615509808416634
F-2.1551901938245264
tp80
a(F9.897849463622453
F-2.2449236348679507
tp81
a(F10.085912524543268
F-2.30545158961833
tp82
a(F10.36688883804975
F-2.399089592038646
tp83
a(F10.554077795549508
F-2.461964714570932
tp84
a(F10.928312966163235
F-2.5889036052995804
tp85
a(F11.02185039023527
F-2.620745785231567
tp86
a(F11.395667107724629
F-2.7488153372523616
tp87
a(F11.582539151550945
F-2.8130773160098106
tp88
a(F11.8625993195114
F-2.9100865908456766
tp89
a(F12.142690310492382
F-3.007487449052053
tp90
a(F12.235977296246569
F-3.0400837876453735
tp91
a(F12.515527835984946
F-3.1388331027410508
tp92
a(F12.795421085418974
F-3.240480687611002
tp93
a(F12.980990023098219
F-3.308321436332356
tp94
a(F13.166427684647308
F-3.376605693787263
tp95
a(F13.444313504853712
F-3.479473317690628
tp96
a(F13.814727819786869
F-3.617427829173024
tp97
a(F13.90732965009972
F-3.652064141632945
tp98
a(F14.184890599224737
F-3.756482288522831
tp99
a(F14.462136732675194
F-3.861367360099581
tp100
a(F14.647005980858738
F-3.931493134495458
tp101
a(F14.831853250396794
F-4.001939339510059
tp102
a(F15.016629699937752
F-4.072616199674678
tp103
a(F15.201317173390295
F-4.143510195115154
tp104
a(F15.478247792073914
F-4.250379577577728
tp105
a(F15.662848017784322
F-4.321814083111318
tp106
a(F16.03162110956929
F-4.465425801574281
tp107
a(F16.12384948480361
F-4.501459073962774
tp108
a(F16.584575856711403
F-4.682609625340232
tp109
a(F16.584575856711403
F-4.682609625340232
tp110
a(F16.952928978152546
F-4.828327056362822
tp111
a(F17.045021109840985
F-4.864717082289931
tp112
a(F17.412969758921793
F-5.008514196093907
tp113
a(F17.5971278411815
F-5.0794325497357145
tp114
a(F17.5971278411815
F-5.0794325497357145
tp115
a(F18.05670145715954
F-5.248513271471438
tp116
a(F18.240771822962955
F-5.315409083232869
tp117
a(F18.516919417755265
F-5.415527202057051
tp118
a(F18.793019458871008
F-5.515442635151542
tp119
a(F18.97718629611321
F-5.582013640031225
tp120
a(F19.161473817159404
F-5.6485652359017315
tp121
a(F19.43812376602865
F-5.748231408506949
tp122
a(F19.62279135513143
F-5.81429876378568
tp123
a(F19.899940967737113
F-5.911838546275979
tp124
a(F20.178063678976297
F-6.0077003597185366
tp125
a(F20.270898146416517
F-6.039249114674336
tp126
a(F20.550573187798157
F-6.130411109371929
tp127
a(F20.73724001575832
F-6.190515062783342
tp128
a(F21.017590107170193
F-6.280367392464765
tp129
a(F21.204577942520633
F-6.3402320905589145
tp130
a(F21.485071482911785
F-6.429791957979637
tp131
a(F21.672226265531094
F-6.489445623712132
tp132
a(F22.046459353298566
F-6.608400017613241
tp133
a(F22.23369515659486
F-6.6678178919357896
tp134
a(F22.51497505378212
F-6.7568009385101115
tp135
a(F22.702586544519917
F-6.815777324676825
tp136
a(F22.985440634793953
F-6.903647987161473
tp137
a(F23.17369356858553
F-6.960728180467311
tp138
a(F23.362084396582738
F-7.016319569353372
tp139
a(F23.64522088234508
F-7.097695298928122
tp140
a(F23.92845046977931
F-7.178721861566388
tp141
a(F24.022956593942663
F-7.205690969528993
tp142
a(F24.40107073644944
F-7.313174243186677
tp143
a(F24.590149970454128
F-7.366771915890818
tp144
a(F24.873983841419037
F-7.446879851036156
tp145
a(F25.063190897670946
F-7.500151535302936
tp146
a(F25.34724169380861
F-7.579937312326524
tp147
a(F25.53667602861491
F-7.633000052615481
tp148
a(F25.72629309671688
F-7.685995910876683
tp149
a(F25.916007919085526
F-7.738888446072408
tp150
a(F26.20095451742982
F-7.817456611063096
tp151
a(F26.390811216886412
F-7.869257189950355
tp152
a(F26.77157230166345
F-7.969162313736335
tp153
a(F26.8668992446864
F-7.993538146594163
tp154
a(F27.249650707406303
F-8.08546409889154
tp155
a(F27.34551709326247
F-8.107551344999015
tp156
a(F27.73040578898805
F-8.189217255541873
tp157
a(F27.826829479727106
F-8.209030668021597
tp158
a(F28.212973202082576
F-8.286710517264968
tp159
a(F28.31084015768433
F-8.30630360573903
tp160
a(F28.697287567395314
F-8.38309164280895
tp161
a(F28.793943036798364
F-8.40221932133763
tp162
a(F29.180817441248035
F-8.4782544763601
tp163
a(F29.27752289710646
F-8.49719264407326
tp164
a(F29.664594281393875
F-8.572202265851134
tp165
a(F29.76142033038374
F-8.59080103959412
tp166
a(F30.14879343524832
F-8.662059485269602
tp167
a(F30.24576401438311
F-8.67936108966071
tp168
a(F30.634040448634195
F-8.746844584204908
tp169
a(F30.82828423996561
F-8.780174007312617
tp170
a(F31.119603703901408
F-8.82971187154028
tp171
a(F31.411122679453282
F-8.878935753545699
tp172
a(F31.605580564403994
F-8.911562992491126
tp173
a(F31.800172745575413
F-8.943982723060248
tp174
a(F31.994787187016907
F-8.976234330329818
tp175
a(F32.28658289163501
F-9.024208921239445
tp176
a(F32.57868124115379
F-9.071935033613315
tp177
a(F32.67611626348952
F-9.087789630272477
tp178
a(F33.06596354835713
F-9.150582897236951
tp179
a(F33.16348918932839
F-9.166207294948949
tp180
a(F33.55292993925075
F-9.227954403074351
tp181
a(F33.65147447388856
F-9.243503026364461
tp182
a(F34.04119070046118
F-9.304495251825069
tp183
a(F34.13868083440755
F-9.319687400856388
tp184
a(F34.52882792592415
F-9.380010329025946
tp185
a(F34.626404133159475
F-9.395026895030368
tp186
a(F35.01675766766226
F-9.45375777642454
tp187
a(F35.11442251161206
F-9.468118673944605
tp188
a(F35.40753729509305
F-9.508685373907921
tp189
a(F35.60297087184709
F-9.534251182629996
tp190
a(F35.89655550848134
F-9.57068407006508
tp191
a(F36.09228240330476
F-9.594755652156977
tp192
a(F36.48375998370178
F-9.642032713146019
tp193
a(F36.58165830980027
F-9.653760687528825
tp194
a(F36.97320368087807
F-9.699982740402747
tp195
a(F37.071094882759596
F-9.711450938920995
tp196
a(F37.463116552588474
F-9.756740489405328
tp197
a(F37.561143875953235
F-9.76797495301561
tp198
a(F37.95374300878264
F-9.81228188592094
tp199
a(F38.05187844838861
F-9.823261688166546
tp200
a(F38.34628169757392
F-9.855724321624173
tp201
a(F38.5426005505364
F-9.8772267456514
tp202
a(F38.9354187916022
F-9.919484441867164
tp203
a(F39.03356725491747
F-9.929978432722859
tp204
a(F39.42751898371616
F-9.971439745555736
tp205
a(F39.52579427234942
F-9.981708289695652
tp206
a(F39.91916809651018
F-10.022114751164317
tp207
a(F40.01751952668896
F-10.032140547535986
tp208
a(F40.41063630781216
F-10.071625856165447
tp209
a(F40.50899292726772
F-10.081448486139138
tp210
a(F41.00132509299345
F-10.129643980351759
tp211
a(F41.00132509299345
F-10.129643980351759
tp212
a(F41.394963071550244
F-10.167351634913105
tp213
a(F41.493390548318665
F-10.176701325341648
tp214
a(F41.88751617528335
F-10.213655861718046
tp215
a(F41.88751617528335
F-10.213655861718046
tp216
a(F42.38038319997491
F-10.258826835975146
tp217
a(F42.57763323258058
F-10.27665133728051
tp218
a(F42.873575773262914
F-10.303040907971459
tp219
a(F42.972248986347275
F-10.31176744383999
tp220
a(F43.36696885874083
F-10.346137201758804
tp221
a(F43.465661033225665
F-10.354660159170152
tp222
a(F43.76188823839096
F-10.379860255858816
tp223
a(F43.959313206282005
F-10.39649273874074
tp224
a(F44.453390550614195
F-10.437438923086118
tp225
a(F44.453390550614195
F-10.437438923086118
tp226
a(F44.84966515367886
F-10.469546374041784
tp227
a(F44.948468846463264
F-10.477486716341163
tp228
a(F45.34403131015992
F-10.508759472686133
tp229
a(F45.44288895429586
F-10.516507735193382
tp230
a(F45.73959444892761
F-10.539482765442507
tp231
a(F45.937420598092366
F-10.55455548712774
tp232
a(F46.331842196878966
F-10.58241506832605
tp233
a(F46.43043177141784
F-10.58892569118894
tp234
a(F46.92347664475167
F-10.614960659143557
tp235
a(F46.92347664475167
F-10.614960659143557
tp236
a(F47.31824003502174
F-10.632942921686784
tp237
a(F47.41689514142572
F-10.637315142390765
tp238
a(F47.811683425040144
F-10.65401688378051
tp239
a(F47.91034916431454
F-10.658081983689383
tp240
a(F48.30535888178825
F-10.673625196124963
tp241
a(F48.30535888178825
F-10.673625196124963
tp242
a(F48.79923371557294
F-10.691534248332763
tp243
a(F48.898023977573246
F-10.695013392728459
tp244
a(F49.29346327855215
F-10.708130655922796
tp245
a(F49.39236234361349
F-10.711332290808212
tp246
a(F49.78792219218788
F-10.723294076773781
tp247
a(F49.88682752668806
F-10.726206478939552
tp248
a(F50.28237582530125
F-10.737064249128784
tp249
a(F50.38127679299145
F-10.73967360904395
tp250
a(F50.778171316050816
F-10.74917335076847
tp251
a(F50.877145429369236
F-10.751296207302849
tp252
a(F51.27250309818438
F-10.756698701374834
tp253
a(F51.37135655632993
F-10.757484848680804
tp254
a(F51.766637704936066
F-10.758316557122319
tp255
a(F51.865442294836306
F-10.758390243069416
tp256
a(F52.2606796938833
F-10.757809700782765
tp257
a(F52.35951190314625
F-10.75754749401152
tp258
a(F52.75508277958795
F-10.755629368703321
tp259
a(F52.85397452751964
F-10.755031651519621
tp260
a(F53.15064128677353
F-10.75265168192603
tp261
a(F53.34842881926552
F-10.750876478588127
tp262
a(F53.74411705207057
F-10.746359031810442
tp263
a(F53.84304604597021
F-10.745115058148432
tp264
a(F54.23885838871575
F-10.73930118531461
tp265
a(F54.33777480337306
F-10.737764598214554
tp266
a(F54.63479754437771
F-10.73257250026799
tp267
a(F54.83276614860196
F-10.72888951570026
tp268
a(F55.129791515828124
F-10.722838795411512
tp269
a(F55.327846059846
F-10.718652274797114
tp270
a(F55.624927410717376
F-10.71175903917377
tp271
a(F55.82293604048029
F-10.70696007261986
tp272
a(F56.220323717864126
F-10.696691857130709
tp273
a(F56.31936729867311
F-10.6940352568119
tp274
a(F56.71541683766313
F-10.682698898784706
tp275
a(F56.8144523531869
F-10.679766668839916
tp276
a(F57.21070860704807
F-10.667334296235241
tp277
a(F57.30981177620089
F-10.66412593058865
tp278
a(F57.70634801121454
F-10.650624974895097
tp279
a(F57.8054807810115
F-10.647158169229716
tp280
a(F58.20183040008379
F-10.632614891301074
tp281
a(F58.30090692925557
F-10.628888079793526
tp282
a(F58.795994707954
F-10.609283498871676
tp283
a(F58.795994707954
F-10.609283498871676
tp284
a(F59.19249514301426
F-10.5926643224383
tp285
a(F59.291632792628405
F-10.588441094994401
tp286
a(F59.58886606867952
F-10.575265394027015
tp287
a(F59.787077448601636
F-10.566321151238283
tp288
a(F60.183805757510285
F-10.547681810269761
tp289
a(F60.28299623821791
F-10.542935573822811
tp290
a(F60.680126234185934
F-10.52331465526359
tp291
a(F60.77938657483216
F-10.518345978901028
tp292
a(F61.176225725220874
F-10.498681688448286
tp293
a(F61.27542808366013
F-10.493943408587684
tp294
a(F61.47508295575321
F-10.485107010096957
tp295
a(F61.87234036391797
F-10.469546285130663
tp296
a(F61.87234036391797
F-10.469546285130663
tp297
a(F62.46823453779354
F-10.44578064763862
tp298
a(F62.56755636390296
F-10.44167744059683
tp299
a(F62.86532975223089
F-10.429077537294855
tp300
a(F63.06386151853714
F-10.420456835085208
tp301
a(F63.36171918616862
F-10.407125739801906
tp302
a(F63.65970497482142
F-10.393505250861903
tp303
a(F63.759078459675685
F-10.388894631240547
tp304
a(F64.15655623542999
F-10.3699410578004
tp305
a(F64.25592264366665
F-10.365132937390923
tp306
a(F64.65322406383478
F-10.345401987007238
tp307
a(F64.75251043224277
F-10.34041693828275
tp308
a(F65.1497805200069
F-10.320137097762183
tp309
a(F65.24911052035858
F-10.315150402214199
tp310
a(F65.64664988720928
F-10.296967410298329
tp311
a(F65.74600520340525
F-10.29271100830718
tp312
a(F66.1435993476259
F-10.27709439445659
tp313
a(F66.24294844318561
F-10.273161576513505
tp314
a(F66.7400431608406
F-10.252790738668775
tp315
a(F66.7400431608406
F-10.252790738668775
tp316
a(F67.13796729123098
F-10.23587188834326
tp317
a(F67.23739710659441
F-10.231589983611224
tp318
a(F67.53566136355613
F-10.218451002029859
tp319
a(F67.73581909627498
F-10.209489433013003
tp320
a(F68.13374821097509
F-10.191199557724783
tp321
a(F68.23318761315926
F-10.186566322102513
tp322
a(F68.63072805122633
F-10.167597634580652
tp323
a(F68.73012350241599
F-10.162803721994015
tp324
a(F69.12802283810925
F-10.143215093404747
tp325
a(F69.22754681967007
F-10.138257373114065
tp326
a(F69.6254727216874
F-10.1180100776794
tp327
a(F69.72495726642263
F-10.112895207125982
tp328
a(F70.22215280927513
F-10.086800738009696
tp329
a(F70.22215280927513
F-10.086800738009696
tp330
a(F70.52050659491925
F-10.070791273636605
tp331
a(F70.71929558392613
F-10.060039533743408
tp332
a(F71.11724440454871
F-10.038075886872495
tp333
a(F71.21673689548786
F-10.032528693171805
tp334
a(F71.6146163095476
F-10.009951029831813
tp335
a(F71.71408324221605
F-10.004261593090376
tp336
a(F72.11188312319675
F-9.981083056943893
tp337
a(F72.21134567171906
F-9.975246754416597
tp338
a(F72.60909241705153
F-9.951606438412002
tp339
a(F72.70853196987936
F-9.94566556163306
tp340
a(F73.00823228870618
F-9.927503474040966
tp341
a(F73.30678028531146
F-9.909152592927438
tp342
a(F73.60542347339099
F-9.890586577743592
tp343
a(F73.70490366267371
F-9.884352098265104
tp344
a(F74.10270626296494
F-9.859071760543406
tp345
a(F74.2021826718579
F-9.85270766696744
tp346
a(F74.60029532110696
F-9.82695644535985
tp347
a(F74.69982306923046
F-9.820477965377103
tp348
a(F75.0979022068309
F-9.795067357985822
tp349
a(F75.19742422836784
F-9.78892680434297
tp350
a(F75.59540742542903
F-9.764585183989158
tp351
a(F75.79433972730664
F-9.752302564553164
tp352
a(F76.09287641377112
F-9.733693178352535
tp353
a(F76.29187467899132
F-9.721171386223233
tp354
a(F76.590518471434
F-9.702191353106205
tp355
a(F76.78958012301528
F-9.689356098982618
tp356
a(F76.98852288413119
F-9.676425037253539
tp357
a(F77.28706590099068
F-9.656801111502137
tp358
a(F77.58552333575467
F-9.637059114657863
tp359
a(F77.6850257979151
F-9.630446636064445
tp360
a(F78.1825922027973
F-9.597012556714747
tp361
a(F78.18364883002127
F-9.596941295238487
tp362
a(F78.58152919718505
F-9.56983454168746
tp363
a(F78.68098173588031
F-9.563020990096492
tp364
a(F78.9797074206044
F-9.542358876777646
tp365
a(F79.37786451208264
F-9.514572880963305
tp366
a(F79.57693436238605
F-9.500543439346488
tp367
a(F79.77597020397566
F-9.486433627084397
tp368
a(F79.97487982924265
F-9.472247938615812
tp369
a(F80.27323735987054
F-9.450778589180663
tp370
a(F80.57165853629286
F-9.429180990627264
tp371
a(F80.67114214978048
F-9.421946557970292
tp372
a(F81.06940606271058
F-9.39269561198435
tp373
a(F81.16893602384913
F-9.385354122302108
tp374
a(F81.56697219087137
F-9.355728496001406
tp375
a(F81.66646989080508
F-9.348326168533177
tp376
a(F82.06365081330603
F-9.320111882516757
tp377
a(F82.26083316076674
F-9.30698285477439
tp378
a(F82.5563121195392
F-9.289586490429675
tp379
a(F82.85176298565929
F-9.27270129605763
tp380
a(F83.04875438436308
F-9.261638148251834
tp381
a(F83.2458064188415
F-9.250773366824589
tp382
a(F83.54128445829305
F-9.234769282468546
tp383
a(F83.63981210446069
F-9.229513948526936
tp384
a(F84.03505131173517
F-9.20908007494422
tp385
a(F84.13361056372062
F-9.204128072878389
tp386
a(F84.52792286012225
F-9.186454504721185
tp387
a(F84.62654981500906
F-9.18248015947767
tp388
a(F85.02125259766144
F-9.171051247526302
tp389
a(F85.11982891295503
F-9.168937051282729
tp390
a(F85.51465789534207
F-9.166115742267795
tp391
a(F85.61338327039923
F-9.16585213799444
tp392
a(F86.00819282240568
F-9.165905088513153
tp393
a(F86.10690193810677
F-9.16601760130747
tp394
a(F86.50178853491745
F-9.167169854986547
tp395
a(F86.60053373149674
F-9.16753247360682
tp396
a(F86.9956671185513
F-9.169649938856125
tp397
a(F87.09444841661663
F-9.170242015853038
tp398
a(F87.4896829656961
F-9.173164406428178
tp399
a(F87.58852835833925
F-9.17398667731041
tp400
a(F87.98394599991501
F-9.177960525827144
tp401
a(F88.08278797156139
F-9.179033175300525
tp402
a(F88.47818512860847
F-9.183908352795948
tp403
a(F88.57707550721852
F-9.185212393190255
tp404
a(F88.97252775227557
F-9.191067853174697
tp405
a(F89.07139279439413
F-9.19263156875438
tp406
a(F89.46691996608683
F-9.199602575916602
tp407
a(F89.76468020677987
F-9.205293015654558
tp408
a(F89.96248105597606
F-9.209321096187685
tp409
a(F90.16026867290199
F-9.213526777542071
tp410
a(F90.35828197790173
F-9.217892975656016
tp411
a(F90.65530789972415
F-9.224815990580478
tp412
a(F90.85331762893587
F-9.22960459691047
tp413
a(F91.05131651217319
F-9.234595888559255
tp414
a(F91.44644021609768
F-9.246839548651531
tp415
a(F91.54517696831165
F-9.250222751589277
tp416
a(F91.94015326184442
F-9.26589875285061
tp417
a(F92.03884318011053
F-9.269927472737745
tp418
a(F92.43378094356476
F-9.286743154581076
tp419
a(F92.63132114489548
F-9.295551293423978
tp420
a(F92.92751373034561
F-9.309251029602008
tp421
a(F93.22398689008432
F-9.323369704271604
tp422
a(F93.42160679028387
F-9.333014582677897
tp423
a(F93.61919780516659
F-9.342943094301233
tp424
a(F93.81686215438575
F-9.353094482660188
tp425
a(F94.11308303180225
F-9.368806302581755
tp426
a(F94.40935448018077
F-9.384879803982585
tp427
a(F94.50811917252932
F-9.390318025308508
tp428
a(F94.90348719330521
F-9.412733545174651
tp429
a(F95.00342304612684
F-9.418486453176708
tp430
a(F95.3985502847737
F-9.441848609846337
tp431
a(F95.49734707467792
F-9.447785035705582
tp432
a(F95.89268154305515
F-9.472149975847302
tp433
a(F95.99152892431573
F-9.478313565232195
tp434
a(F96.28782297961206
F-9.497255707370968
tp435
a(F96.48553509447619
F-9.510018188471811
tp436
a(F96.88104769673299
F-9.5362940488924
tp437
a(F96.97994827217559
F-9.542954186060374
tp438
a(F97.37537468529308
F-9.5702308612602
tp439
a(F97.57308518509784
F-9.584085384142352
tp440
a(F97.86972215684263
F-9.605369373324894
tp441
a(F98.16642016876979
F-9.627056323678367
tp442
a(F98.36412418405921
F-9.641728861701463
tp443
a(F98.56178400270827
F-9.656580398351169
tp444
a(F98.75951691550316
F-9.671320492515328
tp445
a(F98.95728580748309
F-9.685676215712078
tp446
a(F99.25338266313648
F-9.706062154234612
tp447
a(F99.54951680961273
F-9.726570611798863
tp448
a(F99.54951680961273
F-9.726570611798863
tp449
a(F99.8454240456727
F-9.747694018677516
tp450
a(F100.33875361359155
F-9.78420433880124
tp451
a(F100.4374550745656
F-9.79161353736046
tp452
a(F100.83314559102199
F-9.822062954358362
tp453
a(F100.93179422542774
F-9.829755785750521
tp454
a(F101.32651974543079
F-9.861250443753956
tp455
a(F101.4252284835544
F-9.869205806116266
tp456
a(F101.82004640679531
F-9.901795923908324
tp457
a(F101.91871574226008
F-9.910033648339768
tp458
a(F102.31346407502117
F-9.943727700745344
tp459
a(F102.4121177093201
F-9.952252935301201
tp460
a(F102.80682026865807
F-9.987150485855024
tp461
a(F102.90551037518561
F-9.995981130335581
tp462
a(F103.30027082297951
F-10.031766695634305
tp463
a(F103.39897296912888
F-10.040652157035312
tp464
a(F103.6927182979538
F-10.065984959512033
tp465
a(F103.98624819167985
F-10.088946161198963
tp466
a(F104.27974877811928
F-10.109268100150688
tp467
a(F104.37758704205544
F-10.115311852984672
tp468
a(F104.76915177544522
F-10.135974901968748
tp469
a(F104.86711319609971
F-10.141013627721389
tp470
a(F105.25886583587398
F-10.16082161453017
tp471
a(F105.3568126707897
F-10.165747211499536
tp472
a(F105.74051869122718
F-10.184859568977913
tp473
a(F105.82669614217606
F-10.189135569865845
tp474
a(F106.17022979750176
F-10.205943822307455
tp475
a(F106.17022979750176
F-10.205943822307455
tp476
a(F106.32169245959237
F-10.213220951725921
tp477
a(F106.35405443938816
F-10.214775781202565
tp478
a(F106.4234237632748
F-10.218087274388376
tp479
a(F106.4234237632748
F-10.218087274388376
tp480
a(F106.4234237632748
F-10.218087274388376
tp481
a(F106.4234237632748
F-10.218087274388376
tp482
a(F106.44299825845373
F-10.219014293818859
tp483
a(F106.4490126648682
F-10.219298970374398
tp484
a(F106.48252939471949
F-10.220897352987082
tp485
a(F106.55054120390031
F-10.2241564176223
tp486
a(F106.57142994432178
F-10.225161301125066
tp487
a(F106.65305174030284
F-10.229108974664202
tp488
a(F106.74787215111135
F-10.233715626601425
tp489
a(F106.78321872397954
F-10.235436800300192
tp490
a(F106.90467887322359
F-10.241378544932802
tp491
a(F106.99313024700321
F-10.245710114324353
tp492
a(F107.19756369988619
F-10.25576026190948
tp493
a(F107.25271163869529
F-10.258476176797217
tp494
a(F107.49672172819324
F-10.27055550546344
tp495
a(F107.56176150345854
F-10.27378274953555
tp496
a(F107.84558234782612
F-10.28791889429115
tp497
a(F107.91568384130892
F-10.291414701128138
tp498
a(F108.14289358317033
F-10.302786667788446
tp499
a(F108.18943312852313
F-10.305112468360688
tp500
a(F108.28542270743786
F-10.30988613761849
tp501
a(F108.31204593869982
F-10.311205914546893
tp502
a(F108.31204593869982
F-10.311205914546893
tp503
a(F108.31204593869982
F-10.311205914546893
tp504
a(F108.31204593869982
F-10.311205914546893
tp505
a(F108.31204593869982
F-10.311205914546893
tp506
a(F108.31204593869982
F-10.311205914546893
tp507
a(F108.31204593869982
F-10.311205914546893
tp508
a(F108.31204593869982
F-10.311205914546893
tp509
a(F108.31204593869982
F-10.311205914546893
tp510
a(F108.31204593869982
F-10.311205914546893
tp511
a(F108.31204593869982
F-10.311205914546893
tp512
a(F108.31204593869982
F-10.311205914546893
tp513
a(F108.31204593869982
F-10.311205914546893
tp514
a(F108.31204593869982
F-10.311205914546893
tp515
a(F108.31204593869982
F-10.311205914546893
tp516
a(F108.31204593869982
F-10.311205914546893
tp517
a(F108.31204593869982
F-10.311205914546893
tp518
a(F108.31204593869982
F-10.311205914546893
tp519
a(F108.31204593869982
F-10.311205914546893
tp520
a(F108.31204593869982
F-10.311205914546893
tp521
a(F108.31204593869982
F-10.311205914546893
tp522
a(F108.31204593869982
F-10.311205914546893
tp523
a(F108.31204593869982
F-10.311205914546893
tp524
a(F108.31204593869982
F-10.311205914546893
tp525
a(F108.31204593869982
F-10.311205914546893
tp526
a(F108.31204593869982
F-10.311205914546893
tp527
a(F108.31204593869982
F-10.311205914546893
tp528
a(F108.31204593869982
F-10.311205914546893
tp529
a(F108.31204593869982
F-10.311205914546893
tp530
a(F108.31204593869982
F-10.311205914546893
tp531
a(F108.31204593869982
F-10.311205914546893
tp532
a(F108.31204593869982
F-10.311205914546893
tp533
a(F108.31204593869982
F-10.311205914546893
tp534
a(F108.31204593869982
F-10.311205914546893
tp535
a(F108.31204593869982
F-10.311205914546893
tp536
a(F108.31204593869982
F-10.311205914546893
tp537
a(F108.31204593869982
F-10.311205914546893
tp538
a(F108.31204593869982
F-10.311205914546893
tp539
a(F108.31204593869982
F-10.311205914546893
tp540
a(F108.31204593869982
F-10.311205914546893
tp541
a(F108.31204593869982
F-10.311205914546893
tp542
a(F108.31204593869982
F-10.311205914546893
tp543
a(F108.31204593869982
F-10.311205914546893
tp544
a(F108.31204593869982
F-10.311205914546893
tp545
a(F108.31204593869982
F-10.311205914546893
tp546
a(F108.31204593869982
F-10.311205914546893
tp547
a(F108.31204593869982
F-10.311205914546893
tp548
a(F108.31204593869982
F-10.311205914546893
tp549
a(F108.31204593869982
F-10.311205914546893
tp550
a(F108.31204593869982
F-10.311205914546893
tp551
a(F108.31204593869982
F-10.311205914546893
tp552
a(F108.31204593869982
F-10.311205914546893
tp553
a(F108.31204593869982
F-10.311205914546893
tp554
a(F108.31204593869982
F-10.311205914546893
tp555
a(F108.31204593869982
F-10.311205914546893
tp556
a(F108.31204593869982
F-10.311205914546893
tp557
a(F108.31204593869982
F-10.311205914546893
tp558
a(F108.31204593869982
F-10.311205914546893
tp559
a(F108.31204593869982
F-10.311205914546893
tp560
a(F108.31204593869982
F-10.311205914546893
tp561
a(F108.31204593869982
F-10.311205914546893
tp562
a.