(lp0
(F-3.3283228906911324
F-157.7547373586844
tp1
a(F-3.3283228906911324
F-157.7547373586844
tp2
a(F-3.3283228906911324
F-157.7547373586844
tp3
a(F-3.3283228906911324
F-157.7547373586844
tp4
a(F-3.3283228906911324
F-157.7547373586844
tp5
a(F-3.3283228906911324
F-157.7547373586844
tp6
a(F-3.3283228906911324
F-157.7547373586844
tp7
a(F-3.3283228906911324
F-157.7547373586844
tp8
a(F-3.3283228906911324
F-157.7547373586844
tp9
a(F-3.3283228906911324
F-157.7547373586844
tp10
a(F-3.3283228906911324
F-157.7547373586844
tp11
a(F-3.3283228906911324
F-157.7547373586844
tp12
a(F-3.3283228906911324
F-157.7547373586844
tp13
a(F-3.3283228906911324
F-157.7547373586844
tp14
a(F-3.3283228906911324
F-157.7547373586844
tp15
a(F-3.3283228906911324
F-157.7547373586844
tp16
a(F-3.3283228906911324
F-157.7547373586844
tp17
a(F-3.3283228906911324
F-157.7547373586844
tp18
a(F-3.3283228906911324
F-157.7547373586844
tp19
a(F-3.3283228906911324
F-157.7547373586844
tp20
a(F-3.3283228906911324
F-157.7547373586844
tp21
a(F-3.3283228906911324
F-157.7547373586844
tp22
a(F-3.3283228906911324
F-157.7547373586844
tp23
a(F-3.3283228906911324
F-157.7547373586844
tp24
a(F-3.3283228906911324
F-157.7547373586844
tp25
a(F-3.3285330722565236
F-157.75459655383312
tp26
a(F-3.3298758041992054
F-157.75369920601398
tp27
a(F-3.325202790347497
F-157.7568090596165
tp28
a(F-3.296099191901771
F-157.7759352634298
tp29
a(F-3.2856938482086524
F-157.78271771661133
tp30
a(F-3.2239715193645195
F-157.82210102286473
tp31
a(F-3.205155621722173
F-157.83393953486222
tp32
a(F-3.134643159686778
F-157.8770031083743
tp33
a(F-3.081258607104593
F-157.90911009380358
tp34
a(F-2.98440107476273
F-157.96469635438345
tp35
a(F-2.912809759517391
F-158.00468670576052
tp36
a(F-2.743753013631958
F-158.0940097525041
tp37
a(F-2.6978308025396194
F-158.11784913245535
tp38
a(F-2.4929347054182385
F-158.22269318640838
tp39
a(F-2.4381006630640822
F-158.25068914425069
tp40
a(F-2.197520738500973
F-158.3724516772683
tp41
a(F-2.1336293921867098
F-158.4045214401552
tp42
a(F-1.92774493221655
F-158.50576463614394
tp43
a(F-1.7829520325363133
F-158.57601918877873
tp44
a(F-1.4678780693575546
F-158.72334795019614
tp45
a(F-1.3849044420656138
F-158.76098967669785
tp46
a(F-1.120294586197714
F-158.8752079050143
tp47
a(F-0.8522577952690428
F-158.98720245992732
tp48
a(F-0.8522577952690428
F-158.98720245992732
tp49
a(F-0.392703729803887
F-159.15684499833094
tp50
a(F-0.2067449610473095
F-159.22004016110856
tp51
a(F0.0755284492598115
F-159.3064578956062
tp52
a(F0.26540312106230024
F-159.35872922906822
tp53
a(F0.5530094357798887
F-159.4279675072389
tp54
a(F0.8426208418647853
F-159.48663156467333
tp55
a(F0.9395653398933369
F-159.5041830524757
tp56
a(F1.2328207811435368
F-159.54178437131034
tp57
a(F1.428963054295691
F-159.56209053727449
tp58
a(F1.8226657778386974
F-159.57842186039107
tp59
a(F1.921012956865407
F-159.57966320810797
tp60
a(F2.2155579073196288
F-159.56621832512954
tp61
a(F2.411371335002026
F-159.55301972188403
tp62
a(F2.7046122725436756
F-159.5198716260005
tp63
a(F2.89989577857647
F-159.4947586876555
tp64
a(F3.1926052158502185
F-159.45042602406858
tp65
a(F3.3876130740473296
F-159.4187865415061
tp66
a(F3.6802893331922704
F-159.36915358400017
tp67
a(F3.875362350006707
F-159.33580623865126
tp68
a(F4.16801695362193
F-159.2847499748518
tp69
a(F4.363109304121792
F-159.25036366237262
tp70
a(F4.65558022084194
F-159.19771098533943
tp71
a(F4.850634732029671
F-159.16208856034933
tp72
a(F5.142419955808721
F-159.1062755856477
tp73
a(F5.336706909173255
F-159.06766191909142
tp74
a(F5.627318471697547
F-159.00522118305798
tp75
a(F5.82065120781926
F-158.96215125059706
tp76
a(F6.205060742388844
F-158.86665891617494
tp77
a(F6.300891882618297
F-158.84146364616535
tp78
a(F6.586499221197574
F-158.75893070770567
tp79
a(F6.7762502558928475
F-158.7017204651212
tp80
a(F7.057557850722644
F-158.60582769272807
tp81
a(F7.244244210036887
F-158.53910501436448
tp82
a(F7.520333390425627
F-158.42758998766988
tp83
a(F7.702466375018259
F-158.34929892661802
tp84
a(F7.970164457563784
F-158.22155533387888
tp85
a(F8.146841491104936
F-158.1327999145266
tp86
a(F8.40871444483785
F-157.99172922489862
tp87
a(F8.581678742088622
F-157.89471815682234
tp88
a(F8.75368230644894
F-157.79586414658544
tp89
a(F9.09683795948523
F-157.5955847240386
tp90
a(F9.09683795948523
F-157.5955847240386
tp91
a(F9.524758485850533
F-157.34251980735183
tp92
a(F9.780908861189811
F-157.18987564042638
tp93
a(F9.951452419465323
F-157.08796641251115
tp94
a(F10.20787835348714
F-156.9354314482859
tp95
a(F10.379161763847126
F-156.83433044792253
tp96
a(F10.550762651875933
F-156.73323752012882
tp97
a(F10.807838972837025
F-156.5812087277075
tp98
a(F10.97894148033773
F-156.47938272448434
tp99
a(F11.235036711633132
F-156.3259296964048
tp100
a(F11.490887930189762
F-156.17197849356464
tp101
a(F11.576116274917554
F-156.1205209694564
tp102
a(F11.831005784909175
F-155.96519253295986
tp103
a(F12.00072411949316
F-155.86095719817607
tp104
a(F12.253155466184019
F-155.7022950585989
tp105
a(F12.421129010128091
F-155.59541066367146
tp106
a(F12.669811028750406
F-155.4311306045368
tp107
a(F12.834696073982933
F-155.3203164257217
tp108
a(F13.078174717914704
F-155.14857682829012
tp109
a(F13.239618570186046
F-155.0326933611334
tp110
a(F13.560523940825723
F-154.79763966214546
tp111
a(F13.640633964200969
F-154.7387544417053
tp112
a(F13.960131046681305
F-154.50189738676355
tp113
a(F14.03991239229172
F-154.44251486661798
tp114
a(F14.278508899039249
F-154.26373952794805
tp115
a(F14.43742475306611
F-154.14428924042357
tp116
a(F14.675238609230073
F-153.9642332925022
tp117
a(F14.833697715834644
F-153.8440006759763
tp118
a(F15.070824961685842
F-153.66266028883211
tp119
a(F15.22854530338298
F-153.54141507870406
tp120
a(F15.46454142715529
F-153.35888901462067
tp121
a(F15.621674522909029
F-153.2370247307093
tp122
a(F15.93559668213216
F-152.9923301883028
tp123
a(F16.014088746465283
F-152.93119357167055
tp124
a(F16.25026613842596
F-152.74842495379536
tp125
a(F16.408144139580756
F-152.6269872586965
tp126
a(F16.721712351807277
F-152.39183871636268
tp127
a(F16.800435311422998
F-152.33373054977073
tp128
a(F17.03792013686507
F-152.16086665718902
tp129
a(F17.196111749620783
F-152.04587555264592
tp130
a(F17.43333978154018
F-151.87375440606402
tp131
a(F17.591747404394443
F-151.75919431161964
tp132
a(F17.830193660546634
F-151.58851274360734
tp133
a(F17.989524907549082
F-151.47520837818044
tp134
a(F18.311616359560954
F-151.25235526074852
tp135
a(F18.39241054096364
F-151.19715734622727
tp136
a(F18.637710597684233
F-151.03569240843376
tp137
a(F18.802493501006058
F-150.93002649530357
tp138
a(F19.052686017922937
F-150.77620523614505
tp139
a(F19.221250742976427
F-150.6764312888362
tp140
a(F19.563303972849788
F-150.48518383059428
tp141
a(F19.64972327861615
F-150.43906167752536
tp142
a(F19.913393709708153
F-150.30859424139211
tp143
a(F20.09027854888184
F-150.22372602355594
tp144
a(F20.361260223235064
F-150.10877698580467
tp145
a(F20.543282096588968
F-150.03538071189695
tp146
a(F20.82113899219513
F-149.9388614487993
tp147
a(F21.00787276223718
F-149.8785384877923
tp148
a(F21.292446052766035
F-149.80341068473342
tp149
a(F21.483722613216788
F-149.7590096171664
tp150
a(F21.774100456225057
F-149.70892000548486
tp151
a(F21.968685145403093
F-149.68129736417987
tp152
a(F22.262421577955365
F-149.65882576871041
tp153
a(F22.45870351869488
F-149.65144808257097
tp154
a(F22.85043676905481
F-149.65996673728174
tp155
a(F23.04534154384718
F-149.67545537779552
tp156
a(F23.33673579184774
F-149.71186959865173
tp157
a(F23.530585783740925
F-149.74082335182183
tp158
a(F23.724408317461048
F-149.77255320213186
tp159
a(F24.015433864238386
F-149.82646371795016
tp160
a(F24.209362759553454
F-149.8653866325528
tp161
a(F24.50022434641935
F-149.92559369234323
tp162
a(F24.790768231707432
F-149.98636296917186
tp163
a(F24.887607029597522
F-150.00677577257
tp164
a(F25.178779248509635
F-150.06896089094673
tp165
a(F25.37277562387263
F-150.11072798101023
tp166
a(F25.759616983087422
F-150.1974466115792
tp167
a(F25.8561134634146
F-150.219370850839
tp168
a(F26.241434846717233
F-150.31364523151777
tp169
a(F26.337828939530922
F-150.33769938379115
tp170
a(F26.625522050458596
F-150.416080088501
tp171
a(F26.816699356660624
F-150.4701733783718
tp172
a(F27.101507260682038
F-150.55826972230156
tp173
a(F27.290486099353874
F-150.62017055447998
tp174
a(F27.571442314218146
F-150.72132230190897
tp175
a(F27.757777906996715
F-150.79115335204216
tp176
a(F28.032884274559347
F-150.90696414403163
tp177
a(F28.21521173924447
F-150.9870040952754
tp178
a(F28.482615758786583
F-151.11941444409192
tp179
a(F28.658922679997115
F-151.21108194852994
tp180
a(F28.918110369552238
F-151.35913195414838
tp181
a(F29.089545978022606
F-151.46097442182335
tp182
a(F29.3443855583622
F-151.6184252284195
tp183
a(F29.51328836147808
F-151.7238152977363
tp184
a(F29.766445522538454
F-151.88376100556152
tp185
a(F29.934712443265138
F-151.9904002757604
tp186
a(F30.26958723286605
F-152.20504546637886
tp187
a(F30.353233550056725
F-152.2589011233046
tp188
a(F30.687197861824618
F-152.47552638995418
tp189
a(F30.770615999520334
F-152.5298097116159
tp190
a(F31.103585069254365
F-152.74826287245435
tp191
a(F31.186696576537877
F-152.80299334379822
tp192
a(F31.51844104222265
F-153.02351245996283
tp193
a(F31.601167014949304
F-153.07894694868477
tp194
a(F31.92975570924059
F-153.30365744051778
tp195
a(F32.011562897956544
F-153.36040298967006
tp196
a(F32.335044588636976
F-153.59233278308628
tp197
a(F32.41554502184433
F-153.65073568897833
tp198
a(F32.65648778168226
F-153.82695994055732
tp199
a(F32.81694703031579
F-153.94486854850916
tp200
a(F33.05716247317767
F-154.12256105224986
tp201
a(F33.216904396586806
F-154.24112410422873
tp202
a(F33.45612947566021
F-154.42001125715848
tp203
a(F33.61533881181364
F-154.53940040724225
tp204
a(F33.85391272124014
F-154.7197045019923
tp205
a(F34.01278278743356
F-154.84001318818054
tp206
a(F34.250779270424495
F-155.0212958165172
tp207
a(F34.488605060384515
F-155.20328129397473
tp208
a(F34.488605060384515
F-155.20328129397473
tp209
a(F34.96289458964685
F-155.56930267049984
tp210
a(F35.041749210839846
F-155.63049246200325
tp211
a(F35.278037972046945
F-155.81467211399192
tp212
a(F35.43526833446466
F-155.9378899143279
tp213
a(F35.670479496559295
F-156.12329866456804
tp214
a(F35.82717049462336
F-156.24726967575452
tp215
a(F35.9836087164953
F-156.37133603536802
tp216
a(F36.21761039759504
F-156.55817813522793
tp217
a(F36.37347992508165
F-156.68295317922332
tp218
a(F36.529062294289204
F-156.80807686628626
tp219
a(F36.839928725350994
F-157.05936809045835
tp220
a(F36.839928725350994
F-157.05936809045835
tp221
a(F37.2269705036084
F-157.3749138865112
tp222
a(F37.45863609091379
F-157.56488195327503
tp223
a(F37.61269928291927
F-157.69183629646346
tp224
a(F37.766577136454124
F-157.81913450433734
tp225
a(F37.9967657849546
F-158.01068159588894
tp226
a(F38.226569535258434
F-158.2026554542138
tp227
a(F38.30309588508626
F-158.26673299498395
tp228
a(F38.60874588903475
F-158.5239357669382
tp229
a(F38.68502615009289
F-158.58830179854598
tp230
a(F38.913288580458534
F-158.78193001759982
tp231
a(F39.06511376036825
F-158.91118988660932
tp232
a(F39.292035924864315
F-159.10592127640209
tp233
a(F39.44325842794367
F-159.23603289489634
tp234
a(F39.669536174798175
F-159.43206115954024
tp235
a(F39.82002914438803
F-159.56279376450146
tp236
a(F40.04515564148675
F-159.75921589011037
tp237
a(F40.34527980888219
F-160.0219161896716
tp238
a(F40.34527980888219
F-160.0219161896716
tp239
a(F40.64454200784355
F-160.28529130370336
tp240
a(F40.64454200784355
F-160.28529130370336
tp241
a(F41.01820671874187
F-160.61604884162207
tp242
a(F41.167556661652
F-160.74876155186203
tp243
a(F41.39163467077476
F-160.94860358135475
tp244
a(F41.39163467077476
F-160.94860358135475
tp245
a(F41.8382193927354
F-161.34980538511618
tp246
a(F41.912464009189094
F-161.41685974141436
tp247
a(F42.13566498611563
F-161.61909692934088
tp248
a(F42.35680522673244
F-161.82025376736914
tp249
a(F42.57813791162682
F-162.02156017422203
tp250
a(F42.65197435301167
F-162.0887480297119
tp251
a(F42.87347748215266
F-162.29099044926755
tp252
a(F43.02006787387793
F-162.4254780486264
tp253
a(F43.2392379127689
F-162.62789293363534
tp254
a(F43.458380546581125
F-162.8305543050359
tp255
a(F43.53149510369419
F-162.89808866459535
tp256
a(F43.8249596057443
F-163.16643735478254
tp257
a(F43.89828720730278
F-163.23293571659204
tp258
a(F44.04484061069815
F-163.3639820723187
tp259
a(F44.34115651313548
F-163.62141314743215
tp260
a(F44.34115651313548
F-163.62141314743215
tp261
a(F44.7966145331232
F-163.99398269307386
tp262
a(F44.87377088838054
F-164.0543845021665
tp263
a(F45.108205826675466
F-164.23192902851378
tp264
a(F45.26650806749493
F-164.3473599922664
tp265
a(F45.50580121182829
F-164.51891345962184
tp266
a(F45.74501283517188
F-164.68986656055534
tp267
a(F45.824868592173594
F-164.74685487108715
tp268
a(F46.064857235439256
F-164.9175171656241
tp269
a(F46.22507209414872
F-165.03126377106744
tp270
a(F46.46569786065368
F-165.20155584343468
tp271
a(F46.62624133484578
F-165.31503700066042
tp272
a(F46.86535587591304
F-165.483691944194
tp273
a(F47.02593270204265
F-165.59665590200783
tp274
a(F47.26707387772957
F-165.7651469374038
tp275
a(F47.42864810836555
F-165.87756526331796
tp276
a(F47.672924077809085
F-166.04603816349916
tp277
a(F47.836731104786665
F-166.1579441098469
tp278
a(F48.00104800562194
F-166.26888192731704
tp279
a(F48.33094734295905
F-166.4869474349566
tp280
a(F48.33094734295905
F-166.4869474349566
tp281
a(F48.74848318690385
F-166.7502995825898
tp282
a(F48.916367937834366
F-166.85429170825728
tp283
a(F49.16862246922155
F-167.00965954543403
tp284
a(F49.33698394145176
F-167.1130643527181
tp285
a(F49.58982842959713
F-167.2678141260929
tp286
a(F49.84279475932504
F-167.42225558643793
tp287
a(F49.927247140254295
F-167.4737120325064
tp288
a(F50.18128192857039
F-167.62702990974168
tp289
a(F50.35083961963347
F-167.72866233085443
tp290
a(F50.606677189942765
F-167.87853969272302
tp291
a(F50.77773062591354
F-167.9775216823693
tp292
a(F51.03662172996185
F-168.12232192818408
tp293
a(F51.21030199749074
F-168.21681985595848
tp294
a(F51.47408695278075
F-168.35275021320507
tp295
a(F51.65094871479801
F-168.44145761212445
tp296
a(F51.91895982177334
F-168.5677282879365
tp297
a(F52.19120666939123
F-168.6857954754299
tp298
a(F52.282307059641106
F-168.72422456970327
tp299
a(F52.651472514894586
F-168.86657268551002
tp300
a(F52.651472514894586
F-168.86657268551002
tp301
a(F53.21697152067358
F-169.04439823576692
tp302
a(F53.31204100154255
F-169.07077505666896
tp303
a(F53.598812173272826
F-169.14397231075222
tp304
a(F53.79158719964273
F-169.18902221947462
tp305
a(F54.0816004412445
F-169.25290524683817
tp306
a(F54.275335274787544
F-169.29412573304057
tp307
a(F54.46945026580576
F-169.33426540605674
tp308
a(F54.76181114347155
F-169.38955872390895
tp309
a(F54.95711057110168
F-169.42462121094366
tp310
a(F55.3491842869902
F-169.48632451493793
tp311
a(F55.447722071970816
F-169.50023610843454
tp312
a(F55.744703522223986
F-169.5363176502103
tp313
a(F55.94156368172619
F-169.5572900740853
tp314
a(F56.23689179136803
F-169.5781877603086
tp315
a(F56.43415258791077
F-169.58856513465142
tp316
a(F56.730788704708594
F-169.59282421341754
tp317
a(F56.928180423254375
F-169.59015377772684
tp318
a(F57.12493004627287
F-169.58221919822998
tp319
a(F57.51807825889865
F-169.5503086878926
tp320
a(F57.81065128372594
F-169.50697432663517
tp321
a(F58.00457301999987
F-169.47138973761227
tp322
a(F58.19718587840095
F-169.42867225759656
tp323
a(F58.38822297902792
F-169.38076385989783
tp324
a(F58.669258143491156
F-169.29139274716337
tp325
a(F58.85171813241787
F-169.22086223672144
tp326
a(F59.11289798024236
F-169.08996507661777
tp327
a(F59.28081222909768
F-168.9926485723676
tp328
a(F59.50558364134515
F-168.81090821593645
tp329
a(F59.64596056356515
F-168.6793324261073
tp330
a(F59.825797642039575
F-168.4551079701122
tp331
a(F59.93294812226084
F-168.29979941109727
tp332
a(F60.07165291064963
F-168.04527115817243
tp333
a(F60.15260385837245
F-167.87635001488002
tp334
a(F60.2552550068406
F-167.61299336943466
tp335
a(F60.32060984586352
F-167.4339226730066
tp336
a(F60.41493583026325
F-167.16521388980513
tp337
a(F60.510760803132655
F-166.8960038142716
tp338
a(F60.510760803132655
F-166.8960038142716
tp339
a(F60.749554913646804
F-166.26846992083782
tp340
a(F60.749554913646804
F-166.26846992083782
tp341
a(F60.85939799418497
F-166.00174733188572
tp342
a(F60.9360418993171
F-165.82523439433146
tp343
a(F61.05727538242012
F-165.56324334128362
tp344
a(F61.14129892204872
F-165.3896390548012
tp345
a(F61.22688569033374
F-165.21806289586996
tp346
a(F61.36555683100497
F-164.96443194198517
tp347
a(F61.461101262811596
F-164.7969426278965
tp348
a(F61.61509076242067
F-164.55102669528063
tp349
a(F61.720159824550606
F-164.3888549881809
tp350
a(F61.88944734172179
F-164.15488609596164
tp351
a(F62.00522622982391
F-164.00064099058838
tp352
a(F62.12658665619554
F-163.85205564489664
tp353
a(F62.31718599186532
F-163.63461031726018
tp354
a(F62.51435802505634
F-163.42234596171647
tp355
a(F62.64766123577892
F-163.28200646737582
tp356
a(F62.91911944424271
F-163.0059363166591
tp357
a(F62.98729713401989
F-162.93702165953678
tp358
a(F63.12394802869859
F-162.799303284022
tp359
a(F63.39778521025095
F-162.52409692850577
tp360
a(F63.39778521025095
F-162.52409692850577
tp361
a(F63.810616002806874
F-162.112427824872
tp362
a(F63.87945499048011
F-162.04404614767563
tp363
a(F64.086600541919
F-161.83876177632666
tp364
a(F64.086600541919
F-161.83876177632666
tp365
a(F64.57121485852055
F-161.36053145408403
tp366
a(F64.64056456958038
F-161.292325607243
tp367
a(F64.77982934774425
F-161.1557248121487
tp368
a(F64.91892756257481
F-161.0198221692263
tp369
a(F65.05827936291594
F-160.88405959720666
tp370
a(F65.26802819414117
F-160.6802421992105
tp371
a(F65.40790436498024
F-160.54450982252018
tp372
a(F65.68820204662777
F-160.27328698206162
tp373
a(F65.758291493416
F-160.20555281519742
tp374
a(F65.96869864987144
F-160.00306039294296
tp375
a(F66.09406936144252
F-159.8826807507624
tp376
a(F66.25271814295806
F-159.73097140346303
tp377
a(F66.34347525800415
F-159.6443058995615
tp378
a(F66.44239656619412
F-159.5500642705728
tp379
a(F66.50426680668522
F-159.49112989184457
tp380
a(F66.50426680668522
F-159.49112989184457
tp381
a(F66.52999293476628
F-159.46660862459035
tp382
a(F66.52999293476628
F-159.46660862459035
tp383
a(F66.52999293476628
F-159.46660862459035
tp384
a(F66.52999293476628
F-159.46660862459035
tp385
a(F66.52999293476628
F-159.46660862459035
tp386
a(F66.52999293476628
F-159.46660862459035
tp387
a(F66.52999293476628
F-159.46660862459035
tp388
a(F66.52999293476628
F-159.46660862459035
tp389
a(F66.52999293476628
F-159.46660862459035
tp390
a(F66.52999293476628
F-159.46660862459035
tp391
a(F66.52999293476628
F-159.46660862459035
tp392
a(F66.52999293476628
F-159.46660862459035
tp393
a(F66.52999293476628
F-159.46660862459035
tp394
a(F66.52999293476628
F-159.46660862459035
tp395
a(F66.52999293476628
F-159.46660862459035
tp396
a(F66.52999293476628
F-159.46660862459035
tp397
a(F66.52999293476628
F-159.46660862459035
tp398
a(F66.52999293476628
F-159.46660862459035
tp399
a(F66.52999293476628
F-159.46660862459035
tp400
a(F66.52999293476628
F-159.46660862459035
tp401
a(F66.52999293476628
F-159.46660862459035
tp402
a(F66.52999293476628
F-159.46660862459035
tp403
a(F66.52999293476628
F-159.46660862459035
tp404
a(F66.52999293476628
F-159.46660862459035
tp405
a(F66.52999293476628
F-159.46660862459035
tp406
a(F66.52999293476628
F-159.46660862459035
tp407
a(F66.52999293476628
F-159.46660862459035
tp408
a(F66.52999293476628
F-159.46660862459035
tp409
a(F66.52999293476628
F-159.46660862459035
tp410
a(F66.52999293476628
F-159.46660862459035
tp411
a(F66.52999293476628
F-159.46660862459035
tp412
a(F66.52999293476628
F-159.46660862459035
tp413
a(F66.52999293476628
F-159.46660862459035
tp414
a(F66.52999293476628
F-159.46660862459035
tp415
a(F66.52999293476628
F-159.46660862459035
tp416
a(F66.52999293476628
F-159.46660862459035
tp417
a(F66.52999293476628
F-159.46660862459035
tp418
a(F66.52999293476628
F-159.46660862459035
tp419
a(F66.52999293476628
F-159.46660862459035
tp420
a(F66.52999293476628
F-159.46660862459035
tp421
a(F66.52999293476628
F-159.46660862459035
tp422
a(F66.52999293476628
F-159.46660862459035
tp423
a(F66.52999293476628
F-159.46660862459035
tp424
a(F66.52999293476628
F-159.46660862459035
tp425
a(F66.52999293476628
F-159.46660862459035
tp426
a(F66.52999293476628
F-159.46660862459035
tp427
a(F66.52999293476628
F-159.46660862459035
tp428
a(F66.52999293476628
F-159.46660862459035
tp429
a(F66.52999293476628
F-159.46660862459035
tp430
a(F66.52999293476628
F-159.46660862459035
tp431
a.