(lp0
(F38.96631374650473
F5.986537981309952
tp1
a(F38.96631374650473
F5.986537981309952
tp2
a(F38.96631374650473
F5.986537981309952
tp3
a(F38.96631374650473
F5.986537981309952
tp4
a(F38.96631374650473
F5.986537981309952
tp5
a(F38.96631374650473
F5.986537981309952
tp6
a(F38.96631374650473
F5.986537981309952
tp7
a(F38.96631374650473
F5.986537981309952
tp8
a(F38.96631374650473
F5.986537981309952
tp9
a(F38.96631374650473
F5.986537981309952
tp10
a(F38.96631374650473
F5.986537981309952
tp11
a(F38.96631374650473
F5.986537981309952
tp12
a(F38.96631374650473
F5.986537981309952
tp13
a(F38.96631374650473
F5.986537981309952
tp14
a(F38.96631374650473
F5.986537981309952
tp15
a(F38.96631374650473
F5.986537981309952
tp16
a(F38.96631374650473
F5.986537981309952
tp17
a(F38.96631374650473
F5.986537981309952
tp18
a(F38.96631374650473
F5.986537981309952
tp19
a(F38.96631374650473
F5.986537981309952
tp20
a(F38.96631374650473
F5.986537981309952
tp21
a(F38.96631374650473
F5.986537981309952
tp22
a(F38.96631374650473
F5.986537981309952
tp23
a(F38.96631374650473
F5.986537981309952
tp24
a(F38.96631374650473
F5.986537981309952
tp25
a(F38.96631374650473
F5.986537981309952
tp26
a(F38.96631374650473
F5.986537981309952
tp27
a(F38.96631374650473
F5.986537981309952
tp28
a(F38.96631374650473
F5.986537981309952
tp29
a(F38.96631374650473
F5.986537981309952
tp30
a(F38.96554047938132
F5.980163202897742
tp31
a(F38.96344857983031
F5.962901460281548
tp32
a(F38.962346421478145
F5.953808659365327
tp33
a(F38.955059363113534
F5.893742422864195
tp34
a(F38.95279799025783
F5.87511032574724
tp35
a(F38.94075951889292
F5.77594231961125
tp36
a(F38.93359643145972
F5.71701497472689
tp37
a(F38.92027240621942
F5.6075958756142965
tp38
a(F38.910500366420244
F5.527414006931478
tp39
a(F38.89399581844541
F5.3920016322939786
tp40
a(F38.88184539006219
F5.292318576495505
tp41
a(F38.8620116588569
F5.1296098426704955
tp42
a(F38.854943287399635
F5.071624109768449
tp43
a(F38.82380879084813
F4.816264197966194
tp44
a(F38.815500117943515
F4.7484506639343
tp45
a(F38.78788815572582
F4.530102103697588
tp46
a(F38.767648071981306
F4.375235118225262
tp47
a(F38.733278195401404
F4.128115036143207
tp48
a(F38.70777576461999
F3.9542026318156336
tp49
a(F38.663308050314455
F3.679010076613097
tp50
a(F38.63109373531534
F3.4893024040593708
tp51
a(F38.5575133287396
F3.108015132608365
tp52
a(F38.53806689967929
F3.012572572935439
tp53
a(F38.45546563859024
F2.630026426832789
tp54
a(F38.434552122001165
F2.53429470035348
tp55
a(F38.32888677901116
F2.0549760635674725
tp56
a(F38.32888677901116
F2.0549760635674725
tp57
a(F38.243605155096795
F1.6711558400934092
tp58
a(F38.22220736346402
F1.5751417240839003
tp59
a(F38.15762089684064
F1.2869712362148595
tp60
a(F38.11446013098108
F1.0949044426113985
tp61
a(F38.00574464961178
F0.6146195802310584
tp62
a(F38.005544483467006
F0.6137370817308997
tp63
a(F37.9179448213853
F0.22954105755037457
tp64
a(F37.8959800015182
F0.13348320216792398
tp65
a(F37.785521990243936
F-0.3468142906809669
tp66
a(F37.785521990243936
F-0.3468142906809669
tp67
a(F37.696524835905635
F-0.7313578905498389
tp68
a(F37.67421998229617
F-0.827499667748977
tp69
a(F37.5845581388673
F-1.211951057996389
tp70
a(F37.56208593884995
F-1.3080527541831792
tp71
a(F37.47096275223166
F-1.6917026665021897
tp72
a(F37.44787973723452
F-1.7874724860197433
tp73
a(F37.376232428741936
F-2.0746404467962263
tp74
a(F37.32715452794196
F-2.2655070998880515
tp75
a(F37.251594810278654
F-2.5516013812365643
tp76
a(F37.201101507911574
F-2.742056825515409
tp77
a(F37.099432293142925
F-3.122879559378179
tp78
a(F37.07392887885952
F-3.218072235162983
tp79
a(F36.97134446482908
F-3.598793942435291
tp80
a(F36.94561870257735
F-3.6940035744522897
tp81
a(F36.84215292821727
F-4.07464390457366
tp82
a(F36.816181043498716
F-4.1698410578307294
tp83
a(F36.73774836916192
F-4.455246611072216
tp84
a(F36.684879590642595
F-4.645416657375996
tp85
a(F36.60385050360372
F-4.9299214777699
tp86
a(F36.54865958584358
F-5.11923103226897
tp87
a(F36.43268681651209
F-5.497108249318078
tp88
a(F36.37268304497517
F-5.684883957621295
tp89
a(F36.27719872422921
F-5.9648894742100245
tp90
a(F36.17893859115774
F-6.24390674799446
tp91
a(F36.11270211833659
F-6.42961679605146
tp92
a(F36.046128733124426
F-6.615186821139854
tp93
a(F35.94582307121001
F-6.893451504158313
tp94
a(F35.84511530194533
F-7.171322749266993
tp95
a(F35.77768642030283
F-7.356719846309773
tp96
a(F35.70995292740303
F-7.542029688921835
tp97
a(F35.70995292740303
F-7.542029688921835
tp98
a(F35.539476262177196
F-8.005141381707876
tp99
a(F35.43669625118608
F-8.282841805116943
tp100
a(F35.3678692137918
F-8.467910934746294
tp101
a(F35.298869001933674
F-8.65288131709782
tp102
a(F35.194926352421454
F-8.930250707703337
tp103
a(F35.0906934240814
F-9.207480394421244
tp104
a(F35.05584060583721
F-9.299900172509453
tp105
a(F34.91585088947485
F-9.669419934483944
tp106
a(F34.880768821105065
F-9.761794043564725
tp107
a(F34.73981345335671
F-10.131205466790442
tp108
a(F34.70450308861066
F-10.223500118171037
tp109
a(F34.63333993250589
F-10.408930399239065
tp110
a(F34.56230123148958
F-10.59348561190212
tp111
a(F34.383742422118466
F-11.05446382599456
tp112
a(F34.34793410260351
F-11.146621441412684
tp113
a(F34.20402369343056
F-11.51519450193411
tp114
a(F34.131831743414196
F-11.699452522821959
tp115
a(F34.02317885337568
F-11.975605209637266
tp116
a(F33.91409821879766
F-12.25169958704203
tp117
a(F33.84117021310516
F-12.43569042027073
tp118
a(F33.767965886301496
F-12.619734754434269
tp119
a(F33.69462464124075
F-12.803636481671118
tp120
a(F33.584210721184775
F-13.079481193222849
tp121
a(F33.47357203335162
F-13.355003668916966
tp122
a(F33.43663955107091
F-13.446885770843933
tp123
a(F33.32543911211311
F-13.722346130407232
tp124
a(F33.251176295614826
F-13.905948954814004
tp125
a(F33.102045668357476
F-14.27282721664101
tp126
a(F33.064684617269386
F-14.364527226351438
tp127
a(F32.876815519052116
F-14.823103386576468
tp128
a(F32.876815519052116
F-14.823103386576468
tp129
a(F32.80137425889076
F-15.00642055117729
tp130
a(F32.649914147617174
F-15.373004301606917
tp131
a(F32.574028298137144
F-15.555973749935244
tp132
a(F32.45940169720858
F-15.831461623974967
tp133
a(F32.344972464621414
F-16.10569480513435
tp134
a(F32.306737011454615
F-16.1971524097747
tp135
a(F32.15322684115651
F-16.56309958306756
tp136
a(F32.114799317483985
F-16.654547610743023
tp137
a(F31.999187425121995
F-16.92874419956819
tp138
a(F31.844592513303404
F-17.294408470242242
tp139
a(F31.767036192603392
F-17.47719457145241
tp140
a(F31.689339984006242
F-17.659922451522323
tp141
a(F31.611579661208193
F-17.842433040118465
tp142
a(F31.49455121323097
F-18.116330521462768
tp143
a(F31.377330680307377
F-18.390161191877116
tp144
a(F31.338187571499503
F-18.481463393604123
tp145
a(F31.220476878067682
F-18.75523213726621
tp146
a(F31.141849705284034
F-18.93773440353232
tp147
a(F30.98427426845632
F-19.302306941505336
tp148
a(F30.94483191002733
F-19.393388935542294
tp149
a(F30.78683299218224
F-19.757914070648507
tp150
a(F30.747411229120782
F-19.849115226847974
tp151
a(F30.591781608580074
F-20.21403985359674
tp152
a(F30.55352057736757
F-20.304775262993545
tp153
a(F30.40535818764028
F-20.669076875017595
tp154
a(F30.369012443486053
F-20.76032649958266
tp155
a(F30.226998895998467
F-21.127499793565242
tp156
a(F30.191711769693676
F-21.219150026424145
tp157
a(F30.050889482571336
F-21.58617888521336
tp158
a(F30.015719668534516
F-21.677993471276178
tp159
a(F29.9104823203008
F-21.953511623540688
tp160
a(F29.805424209027457
F-22.229218807072105
tp161
a(F29.700583735625422
F-22.505091580489406
tp162
a(F29.700583735625422
F-22.505091580489406
tp163
a(F29.526510684323817
F-22.96529296342518
tp164
a(F29.45736553038762
F-23.14960229421846
tp165
a(F29.354570807339154
F-23.4262938312524
tp166
a(F29.286527984175923
F-23.611005730752634
tp167
a(F29.218617351435622
F-23.795770884436113
tp168
a(F29.117033723242184
F-24.073076126349015
tp169
a(F29.015630432377044
F-24.35058354686455
tp170
a(F28.948194289712895
F-24.535651388666246
tp171
a(F28.847342887392603
F-24.81353691419383
tp172
a(F28.780216485358977
F-24.998874908329416
tp173
a(F28.67968988220253
F-25.276923411886113
tp174
a(F28.61286176492614
F-25.462341577942375
tp175
a(F28.546121471161587
F-25.647887330283353
tp176
a(F28.47944647869558
F-25.833565608597066
tp177
a(F28.346572859288475
F-26.20482707006982
tp178
a(F28.313392090407085
F-26.297690357456997
tp179
a(F28.180584036562834
F-26.670475527162054
tp180
a(F28.147508679991294
F-26.76347679677131
tp181
a(F28.015575302257027
F-27.135565949024425
tp182
a(F27.982641846291166
F-27.22854897830183
tp183
a(F27.850969779881112
F-27.601179571275093
tp184
a(F27.785234860330576
F-27.787681979833092
tp185
a(F27.686858255593723
F-28.067637857612457
tp186
a(F27.588702874212192
F-28.34778565422403
tp187
a(F27.523370328576316
F-28.534532695947632
tp188
a(F27.4581773990806
F-28.721365444463007
tp189
a(F27.393106534732443
F-28.908188128612675
tp190
a(F27.295644035827724
F-29.188360183957194
tp191
a(F27.19772590429383
F-29.468664780203248
tp192
a(F27.164895199444015
F-29.561957156741702
tp193
a(F27.06519365623052
F-29.841552703931114
tp194
a(F26.93220264540617
F-30.214341052739098
tp195
a(F26.865796882695058
F-30.400852285031302
tp196
a(F26.799464210916224
F-30.58756018709387
tp197
a(F26.700236634326256
F-30.867585968441688
tp198
a(F26.634179787749837
F-31.0543160197286
tp199
a(F26.535285553952935
F-31.334421019013785
tp200
a(F26.469444130254974
F-31.521262944127816
tp201
a(F26.40370810464724
F-31.708039462595494
tp202
a(F26.304910722304825
F-31.989246206056784
tp203
a(F26.206438912343486
F-32.26986492828482
tp204
a(F26.173651932405626
F-32.36338907402131
tp205
a(F26.075408260519108
F-32.64417614046307
tp206
a(F26.010022599169442
F-32.83130918575995
tp207
a(F25.912119770541505
F-33.11207516180183
tp208
a(F25.846901695423135
F-33.299301072183
tp209
a(F25.716663551678256
F-33.673931822734986
tp210
a(F25.684135779179396
F-33.7675879264362
tp211
a(F25.55413292306503
F-34.142422127143206
tp212
a(F25.489266405117775
F-34.329882863590605
tp213
a(F25.489266405117775
F-34.329882863590605
tp214
a(F25.327582457844724
F-34.798713932165384
tp215
a(F25.262999596644473
F-34.98640816127402
tp216
a(F25.23073466953836
F-35.08024456277935
tp217
a(F25.102000207692985
F-35.455658169265256
tp218
a(F25.037624883724316
F-35.64355665427606
tp219
a(F24.9091950588895
F-36.019081602171255
tp220
a(F24.877119306157663
F-36.11297999616192
tp221
a(F24.749105080819465
F-36.48873298006644
tp222
a(F24.717143581191444
F-36.58267590950093
tp223
a(F24.621376918044298
F-36.8648800473833
tp224
a(F24.557597625884654
F-37.05301817184103
tp225
a(F24.398102608986868
F-37.524193905643095
tp226
a(F24.398102608986868
F-37.524193905643095
tp227
a(F24.270987801959578
F-37.90060101179498
tp228
a(F24.2392499370732
F-37.994710925689084
tp229
a(F24.11263391090076
F-38.37121960075008
tp230
a(F24.081016108222915
F-38.465366851334736
tp231
a(F23.98624689504437
F-38.7480220984328
tp232
a(F23.923122887902064
F-38.936548928065214
tp233
a(F23.797115411790426
F-39.31364379793332
tp234
a(F23.765627808310427
F-39.40797306010229
tp235
a(F23.639874515020022
F-39.785309726453754
tp236
a(F23.60846439422644
F-39.879620563707554
tp237
a(F23.51431506411871
F-40.16268326170304
tp238
a(F23.451640164444626
F-40.35130152433868
tp239
a(F23.357675280076762
F-40.634540021475594
tp240
a(F23.26383295016213
F-40.91772543625676
tp241
a(F23.17010778972906
F-41.201063067434724
tp242
a(F23.1077086211054
F-41.38989571793246
tp243
a(F23.04537411310965
F-41.578767100530136
tp244
a(F22.95202980776411
F-41.86202866557928
tp245
a(F22.95202980776411
F-41.86202866557928
tp246
a(F22.796752651668836
F-42.33456580341515
tp247
a(F22.734698192186272
F-42.523642760545364
tp248
a(F22.64169000631911
F-42.80725671546829
tp249
a(F22.579734512425723
F-42.996354252804196
tp250
a(F22.48656923021511
F-43.28096518620123
tp251
a(F22.393810768205682
F-43.56461251876282
tp252
a(F22.362895911598212
F-43.65920199426868
tp253
a(F22.270259101254783
F-43.94303094218869
tp254
a(F22.177724910320485
F-44.22686233897763
tp255
a(F22.177724910320485
F-44.22686233897763
tp256
a(F22.0237333741714
F-44.70029214244578
tp257
a(F21.962247583491717
F-44.88959099187464
tp258
a(F21.870124870984615
F-45.17348762759792
tp259
a(F21.777628964626476
F-45.45747745350311
tp260
a(F21.71544243296137
F-45.64675991732224
tp261
a(F21.653142261246064
F-45.834582373018826
tp262
a(F21.557502779013394
F-46.11503511465746
tp263
a(F21.49175169042021
F-46.30122198248285
tp264
a(F21.38924226685594
F-46.57805404601826
tp265
a(F21.284087605455376
F-46.85423077769882
tp266
a(F21.24851911656223
F-46.94609897668886
tp267
a(F21.105209671393723
F-47.31355593970105
tp268
a(F21.06929350944442
F-47.405426278336805
tp269
a(F20.92518452533117
F-47.77245942548159
tp270
a(F20.889078762709786
F-47.86421296995699
tp271
a(F20.744055281317163
F-48.23113160705887
tp272
a(F20.707744985897
F-48.32283472696453
tp273
a(F20.56147272067717
F-48.69048791987916
tp274
a(F20.524934504623115
F-48.782151109382184
tp275
a(F20.37807619764442
F-49.14877063772451
tp276
a(F20.341260272265462
F-49.24042559408637
tp277
a(F20.19689210958645
F-49.59914779576873
tp278
a(F20.133760226660442
F-49.75673710999049
tp279
a(F20.133760226660442
F-49.75673710999049
tp280
a(F20.004526312302797
F-50.08804385428706
tp281
a(F19.97674604867977
F-50.16118908848212
tp282
a(F19.95229878943298
F-50.22638094620956
tp283
a(F19.94240995679555
F-50.253179581744035
tp284
a(F19.931082450010692
F-50.2842987950484
tp285
a(F19.923900656706678
F-50.304264562708916
tp286
a(F19.92273258523438
F-50.3075542579654
tp287
a(F19.921632051113907
F-50.31081080237065
tp288
a(F19.91857628925331
F-50.320071228521506
tp289
a(F19.908542143403285
F-50.35499116462608
tp290
a(F19.905411602803298
F-50.36729375304084
tp291
a(F19.895888267388166
F-50.41946130701104
tp292
a(F19.889726564685226
F-50.46374995123976
tp293
a(F19.88659314662167
F-50.54726017944241
tp294
a(F19.88732051635227
F-50.61046897405238
tp295
a(F19.90916042127418
F-50.76358348556769
tp296
a(F19.917205776621106
F-50.80526264107519
tp297
a(F19.979644393814098
F-50.98838839179987
tp298
a(F19.999948809413105
F-51.03671580508103
tp299
a(F20.115918382936858
F-51.23809612680156
tp300
a(F20.15037965853881
F-51.2897690675406
tp301
a(F20.32718086461601
F-51.49609410909369
tp302
a(F20.376549885914542
F-51.548343554715515
tp303
a(F20.61699339212594
F-51.744778579249086
tp304
a(F20.68301982594206
F-51.79245752598894
tp305
a(F20.987548556070788
F-51.96627621404078
tp306
a(F21.069208801362898
F-52.00803167989213
tp307
a(F21.42116577981656
F-52.154853681517054
tp308
a(F21.51057988069916
F-52.18900947836821
tp309
a(F21.879347296181617
F-52.307440767412615
tp310
a(F21.972819411236244
F-52.334367285278375
tp311
a(F22.258319684414605
F-52.40238191295274
tp312
a(F22.450051886883756
F-52.44210575737332
tp313
a(F22.839332479213663
F-52.49179708654106
tp314
a(F22.937018600831454
F-52.50165613963506
tp315
a(F23.320162252911036
F-52.51235644433544
tp316
a(F23.406163264183835
F-52.51164123944566
tp317
a(F23.677798656470223
F-52.49184697839211
tp318
a(F23.732036751037988
F-52.4862567971843
tp319
a(F23.887786943489353
F-52.464602483239354
tp320
a(F23.91416064764566
F-52.460594601165205
tp321
a(F23.95168722614828
F-52.45446687510001
tp322
a(F23.959868637156248
F-52.453112551313225
tp323
a(F23.973486894959454
F-52.45078321764355
tp324
a(F23.97604455239632
F-52.45032957038075
tp325
a(F23.979671173640963
F-52.44962773976555
tp326
a(F23.98005176071151
F-52.44954989912572
tp327
a(F23.97839344866417
F-52.4499264315596
tp328
a(F23.97776926476716
F-52.45007396823195
tp329
a(F23.97427764984664
F-52.45099562987665
tp330
a(F23.972246070715737
F-52.451562916912536
tp331
a(F23.972246070715737
F-52.451562916912536
tp332
a(F23.96555653322705
F-52.45369761236313
tp333
a(F23.96323432217279
F-52.45450293116256
tp334
a(F23.960916310087306
F-52.45535586466673
tp335
a(F23.958616492307062
F-52.456233854340795
tp336
a(F23.955267248645228
F-52.457612442919306
tp337
a(F23.95197039938622
F-52.45903854708362
tp338
a(F23.95088907108035
F-52.45951870181641
tp339
a(F23.947667562997914
F-52.46105066360618
tp340
a(F23.944519992139544
F-52.46260680305687
tp341
a(F23.944519992139544
F-52.46260680305687
tp342
a(F23.938540284500963
F-52.465881275478736
tp343
a(F23.936588869249213
F-52.46700964126626
tp344
a(F23.934553973964007
F-52.468239137142135
tp345
a(F23.9325890528174
F-52.46946806192388
tp346
a(F23.929645755891723
F-52.47140486513374
tp347
a(F23.92993669169959
F-52.47118232304992
tp348
a(F23.932807189437252
F-52.46916270637749
tp349
a(F23.974714862565296
F-52.43752743602093
tp350
a(F23.974714862565296
F-52.43752743602093
tp351
a(F24.018292217659592
F-52.401959557855044
tp352
a(F24.05252360953616
F-52.37306162986753
tp353
a(F24.117227355593357
F-52.31450797587773
tp354
a(F24.166060952604983
F-52.268459479906205
tp355
a(F24.246998013869536
F-52.18663994094594
tp356
a(F24.29852161474108
F-52.131902664804436
tp357
a(F24.3503510697113
F-52.07104316372593
tp358
a(F24.45784843067201
F-51.91354248470867
tp359
a(F24.45784843067201
F-51.91354248470867
tp360
a(F24.5776244457833
F-51.64242090037909
tp361
a(F24.61676801507394
F-51.51780198121196
tp362
a(F24.651014548589433
F-51.308579767952
tp363
a(F24.651014548589433
F-51.308579767952
tp364
a(F24.60954301006415
F-50.82206429172094
tp365
a(F24.564280804430908
F-50.65478081325624
tp366
a(F24.49599133524392
F-50.48856666211981
tp367
a(F24.357979949207145
F-50.25409385435018
tp368
a(F24.252757634124922
F-50.104936346609584
tp369
a(F24.076806036389662
F-49.890312486898246
tp370
a(F23.94381395100706
F-49.75578879802092
tp371
a(F23.802961669420824
F-49.62690526045606
tp372
a(F23.578229427339856
F-49.44330697422472
tp373
a(F23.35512953372341
F-49.266329426077924
tp374
a(F23.279806462563364
F-49.20598579027251
tp375
a(F22.98131732282988
F-48.95736096967114
tp376
a(F22.906715138064374
F-48.89364063322216
tp377
a(F22.686830161964185
F-48.697525024282584
tp378
a(F22.54262547035942
F-48.563797942475894
tp379
a(F22.332469609914856
F-48.35633995145202
tp380
a(F22.195228344024226
F-48.21495870884475
tp381
a(F21.995596548676698
F-47.996586780304696
tp382
a(F21.865493931100964
F-47.848182242166644
tp383
a(F21.68009714638334
F-47.61729577502318
tp384
a(F21.560394363811234
F-47.46027392173784
tp385
a(F21.288070088105474
F-47.048643405803
tp386
a(F21.288070088105474
F-47.048643405803
tp387
a(F21.09329909991878
F-46.70370855996661
tp388
a(F21.04804122368572
F-46.6159288246689
tp389
a(F20.889729927531004
F-46.254166102649926
tp390
a(F20.853010117595836
F-46.162511486865036
tp391
a(F20.733560664197512
F-45.78790897851576
tp392
a(F20.706261768288844
F-45.693504308481316
tp393
a(F20.600284873971173
F-45.212287937791736
tp394
a(F20.600284873971173
F-45.212287937791736
tp395
a(F20.538317083986495
F-44.821946465685734
tp396
a(F20.525891278603265
F-44.723811029368534
tp397
a(F20.497384447227248
F-44.32948282127096
tp398
a(F20.492591512076793
F-44.23074793085454
tp399
a(F20.500781105977023
F-43.835195010735376
tp400
a(F20.51356738888826
F-43.63780339485316
tp401
a(F20.555798636729175
F-43.3450683525215
tp402
a(F20.613908630959095
F-43.055915618189836
tp403
a(F20.667703626377815
F-42.86767646785694
tp404
a(F20.73894577353896
F-42.686641760017935
tp405
a(F20.829433552959625
F-42.513973914010364
tp406
a(F21.004473563120296
F-42.28291944915479
tp407
a(F21.209235022018998
F-42.07997438859296
tp408
a(F21.285652788332214
F-42.01854572863565
tp409
a(F21.53986777077881
F-41.8815986264449
tp410
a(F21.71359976005197
F-41.802054663785256
tp411
a(F22.090360393995777
F-41.72055039772791
tp412
a(F22.184822753944673
F-41.70680892844245
tp413
a(F22.57159756954873
F-41.68514200991215
tp414
a(F22.66824803472382
F-41.68313955474989
tp415
a(F23.060425150977714
F-41.690699915965936
tp416
a(F23.25840795562033
F-41.69725103712767
tp417
a(F23.25840795562033
F-41.69725103712767
tp418
a(F23.856882746972403
F-41.71092149920521
tp419
a(F24.056309167617584
F-41.711274851958365
tp420
a(F24.254286509884828
F-41.706604905016576
tp421
a(F24.449818757701472
F-41.69948828311185
tp422
a(F24.719563855194355
F-41.683793449603456
tp423
a(F24.956746159189265
F-41.66539182311083
tp424
a(F25.026358749597573
F-41.65896016889658
tp425
a(F25.226448670112624
F-41.63512617636951
tp426
a(F25.27331647332282
F-41.629027647324776
tp427
a(F25.3788270852653
F-41.61357624727615
tp428
a(F25.394889595598205
F-41.61112610345359
tp429
a(F25.406986233698383
F-41.60922005867582
tp430
a(F25.418302664459883
F-41.60734867775064
tp431
a(F25.418302664459883
F-41.60734867775064
tp432
a(F25.4179173252222
F-41.60742942126917
tp433
a(F25.415904952917394
F-41.60786636799009
tp434
a(F25.41350497154459
F-41.608428492875795
tp435
a(F25.411822599664514
F-41.608850382182105
tp436
a(F25.410013613746266
F-41.609342670937984
tp437
a(F25.408192719565868
F-41.60986763864344
tp438
a(F25.40572465727504
F-41.61063988239221
tp439
a(F25.416183566886865
F-41.60717147300835
tp440
a(F25.422330455226373
F-41.60503260297318
tp441
a(F25.471545813787003
F-41.586298530314515
tp442
a(F25.506749711429546
F-41.57182528848959
tp443
a(F25.54741737882131
F-41.55419103905087
tp444
a(F25.628225804202234
F-41.51651023910475
tp445
a(F25.720952813041198
F-41.4705687119662
tp446
a(F25.752923897470186
F-41.45405911678051
tp447
a(F25.87753856448343
F-41.37862907832583
tp448
a(F25.91501296748987
F-41.353312661533224
tp449
a(F26.056307131712597
F-41.233947823804655
tp450
a(F26.094184010686227
F-41.19873008098492
tp451
a(F26.24532292739663
F-41.00981438986411
tp452
a(F26.28065999247624
F-40.957800157421445
tp453
a(F26.370912034942265
F-40.77397672662807
tp454
a(F26.424568262363778
F-40.63322995323923
tp455
a(F26.493785298337936
F-40.3256857406678
tp456
a(F26.505795145018315
F-40.24526033580095
tp457
a(F26.51473506521962
F-39.897020150936605
tp458
a(F26.51167604106936
F-39.80336807634885
tp459
a(F26.46461995745949
F-39.42788610120412
tp460
a(F26.448929813766988
F-39.33340687112464
tp461
a(F26.431525626088366
F-39.237879320313404
tp462
a(F26.326867841356
F-38.76325440644373
tp463
a(F26.263817505834904
F-38.475025756955546
tp464
a(F26.222849551421163
F-38.281072581348525
tp465
a(F26.165186560296725
F-37.99241344148957
tp466
a(F26.128184555161287
F-37.79960567195327
tp467
a(F26.09404977284462
F-37.60650663124989
tp468
a(F26.0487419705989
F-37.315466070541426
tp469
a(F26.00856404235278
F-37.023786019503405
tp470
a(F25.9965848490948
F-36.92634280270035
tp471
a(F25.952781916759406
F-36.437263386121636
tp472
a(F25.952781916759406
F-36.437263386121636
tp473
a(F25.939678246733283
F-36.14293077855794
tp474
a(F25.934010800098793
F-35.94655165442693
tp475
a(F25.93011672219467
F-35.651525107524506
tp476
a(F25.928390096740202
F-35.4547418240053
tp477
a(F25.926504596123422
F-35.05984365886699
tp478
a(F25.926130986668607
F-34.961205049500784
tp479
a(F25.926447414072033
F-34.56675677327937
tp480
a(F25.926801539183536
F-34.46825492894797
tp481
a(F25.93084894381969
F-34.17224458561821
tp482
a(F25.93508075341263
F-33.97511890930539
tp483
a(F25.94569888534332
F-33.67922249461218
tp484
a(F25.954974090691938
F-33.482203886706365
tp485
a(F25.98115999272247
F-33.08820780548564
tp486
a(F25.989184695644106
F-32.98978925535413
tp487
a(F26.008407607481875
F-32.79326055117036
tp488
a(F26.031064079457057
F-32.59712288933105
tp489
a(F26.104277135201702
F-32.109311763361674
tp490
a(F26.137040262451475
F-31.91447417309919
tp491
a(F26.153986316626234
F-31.817172769874112
tp492
a(F26.224972765658983
F-31.42858060351402
tp493
a(F26.279351497740855
F-31.136930443294904
tp494
a(F26.31583641225174
F-30.94259138218174
tp495
a(F26.37103364800355
F-30.651112555882083
tp496
a(F26.408218056194645
F-30.45674783540293
tp497
a(F26.46451941090995
F-30.16558851307209
tp498
a(F26.52139415207564
F-29.8742769551846
tp499
a(F26.559566537864256
F-29.680048348072944
tp500
a(F26.59813811600325
F-29.485790042625663
tp501
a(F26.63751200459603
F-29.29081525351581
tp502
a(F26.69839491204186
F-29.00031674676791
tp503
a(F26.761233215924364
F-28.710869177512254
tp504
a(F26.782927310267173
F-28.61456196880924
tp505
a(F26.87593440153379
F-28.22976482017113
tp506
a(F26.900010036511578
F-28.133718467970276
tp507
a(F26.978687791456004
F-27.84712189287364
tp508
a(F27.033414122807308
F-27.65669888917478
tp509
a(F27.154556455155923
F-27.27889562319172
tp510
a(F27.18618590544807
F-27.184853308934205
tp511
a(F27.325224980363327
F-26.814037446162075
tp512
a(F27.361436327156806
F-26.721908941477476
tp513
a(F27.474940124165535
F-26.44735086892445
tp514
a(F27.55223413176012
F-26.26495400439972
tp515
a(F27.70979203356517
F-25.90071378561788
tp516
a(F27.749355608331427
F-25.809678014645097
tp517
a(F27.868649615563086
F-25.537036679384347
tp518
a(F27.948456683177902
F-25.3552938866086
tp519
a(F28.109316768303543
F-24.992353848699068
tp520
a(F28.14988394419081
F-24.901704948539603
tp521
a(F28.315408734554865
F-24.540433266541356
tp522
a(F28.35731603800216
F-24.450462216420107
tp523
a(F28.486649941593072
F-24.182283793667086
tp524
a(F28.574264912682263
F-24.00420902899532
tp525
a(F28.758114011761087
F-23.651371131189272
tp526
a(F28.804938378930824
F-23.563848571648577
tp527
a(F29.001010094276168
F-23.218172517402476
tp528
a(F29.051194617269772
F-23.132534466128703
tp529
a(F29.263895485038308
F-22.797023195279042
tp530
a(F29.31851701237342
F-22.71418784510282
tp531
a(F29.488634404082383
F-22.469672610503896
tp532
a(F29.603986890462483
F-22.307992587465762
tp533
a(F29.779487704763046
F-22.06669280990813
tp534
a(F29.897013598424216
F-21.90638123375296
tp535
a(F30.13324333344842
F-21.58655262522325
tp536
a(F30.192524424550015
F-21.506609875969858
tp537
a(F30.37179367967878
F-21.268099673512577
tp538
a(F30.492306081676016
F-21.109916949203022
tp539
a(F30.67559658397844
F-20.87468083562965
tp540
a(F30.799052077378704
F-20.71859921831555
tp541
a(F31.052304676086123
F-20.411767169977608
tp542
a(F31.116632979438894
F-20.335945027514775
tp543
a(F31.314996841044245
F-20.11251112860777
tp544
a(F31.449626164245284
F-19.965855926081684
tp545
a(F31.657421423717835
F-19.75150052494986
tp546
a(F31.7986681708495
F-19.611460174272732
tp547
a(F32.091178165959064
F-19.341102400991623
tp548
a(F32.16535465876559
F-19.27466220304779
tp549
a(F32.39648708991917
F-19.084763367811707
tp550
a(F32.55318956556284
F-18.961553964388774
tp551
a(F32.96220725970747
F-18.67834753383434
tp552
a(F32.96220725970747
F-18.67834753383434
tp553
a(F33.38884977512296
F-18.42463659709592
tp554
a(F33.38884977512296
F-18.42463659709592
tp555
a(F33.83061786485038
F-18.194557213330295
tp556
a(F33.83061786485038
F-18.194557213330295
tp557
a(F34.09941072770176
F-18.063254791096966
tp558
a(F34.27948371796259
F-17.976927397627826
tp559
a(F34.64043163513757
F-17.805981310783572
tp560
a(F34.730732312984365
F-17.763476801626105
tp561
a(F35.09284718759628
F-17.59464460399142
tp562
a(F35.183443754933165
F-17.55260163526827
tp563
a(F35.54617896278529
F-17.386124965014886
tp564
a(F35.63705767647388
F-17.344639614446137
tp565
a(F35.91008212923904
F-17.221286094386503
tp566
a(F36.09243767582423
F-17.13929072501126
tp567
a(F36.45791621084299
F-16.977613528339344
tp568
a(F36.54946816905474
F-16.937720322759805
tp569
a(F36.91759131070741
F-16.7820055322029
tp570
a(F37.009979733414426
F-16.743919998903827
tp571
a(F37.381783840644275
F-16.59785425022547
tp572
a(F37.475152830461425
F-16.56215779850327
tp573
a(F37.85195107743235
F-16.429212708522787
tp574
a(F37.94701137305145
F-16.39697791497346
tp575
a(F38.32759378031854
F-16.276364660290525
tp576
a(F38.4229447588926
F-16.246760348971506
tp577
a(F38.804957767542305
F-16.130210231471427
tp578
a(F38.900503583869735
F-16.10128911867207
tp579
a(F39.28340826721925
F-15.986895005153835
tp580
a(F39.37920568978445
F-15.95850365810178
tp581
a(F39.76299854186301
F-15.846321750128368
tp582
a(F39.85901221249173
F-15.818507160779856
tp583
a(F40.147033114896054
F-15.735953921916783
tp584
a(F40.339283082179826
F-15.68140259279031
tp585
a(F40.82016626780044
F-15.547091518600274
tp586
a(F40.82016626780044
F-15.547091518600274
tp587
a(F41.10935135615152
F-15.467836322974076
tp588
a(F41.302195158024524
F-15.415271252767202
tp589
a(F41.59189739435134
F-15.337552811228692
tp590
a(F41.785100597701366
F-15.286174107339379
tp591
a(F42.075067295573895
F-15.210073900904302
tp592
a(F42.26837870381167
F-15.159607998191031
tp593
a(F42.6553725913823
F-15.06031532042667
tp594
a(F42.75218832089641
F-15.03563105296819
tp595
a(F43.04286548358954
F-14.962620862140422
tp596
a(F43.43056399005911
F-14.866340688696303
tp597
a(F43.62463546852466
F-14.8188364769162
tp598
a(F43.818858822533656
F-14.771673676997684
tp599
a(F44.01314681935604
F-14.72503332351083
tp600
a(F44.305428852782626
F-14.656889546784658
tp601
a(F44.59711315231579
F-14.59117551701989
tp602
a(F44.6944704390509
F-14.569864678693142
tp603
a(F45.084284440524485
F-14.486952609839049
tp604
a(F45.279439098556374
F-14.446026678149508
tp605
a(F45.572328148253725
F-14.385809519933204
tp606
a(F45.86552941216895
F-14.32638071329463
tp607
a(F45.963295756038875
F-14.30671465244693
tp608
a(F46.25649355993685
F-14.248474974895455
tp609
a(F46.45208459492085
F-14.210173158825015
tp610
a(F46.647874017229775
F-14.17224327544129
tp611
a(F47.03946137856332
F-14.097752116116101
tp612
a(F47.137485509329814
F-14.079292367584388
tp613
a(F47.529675884481215
F-14.006797719988114
tp614
a(F47.62774739188732
F-13.988849292933432
tp615
a(F48.02038987532178
F-13.918254490916706
tp616
a(F48.31494185022933
F-13.866181983236157
tp617
a(F48.511393692541574
F-13.83203868677359
tp618
a(F48.511393692541574
F-13.83203868677359
tp619
a(F48.806193316499275
F-13.781744779306987
tp620
a(F49.19979753263057
F-13.7158799672111
tp621
a(F49.495038400599846
F-13.667379460810857
tp622
a(F49.59348535028122
F-13.651360061679867
tp623
a(F49.98808429030425
F-13.588329617558474
tp624
a(F50.08659339896742
F-13.572753879912044
tp625
a(F50.48102051369808
F-13.511468435919545
tp626
a(F50.678357693205285
F-13.481346144243044
tp627
a(F50.97426441549544
F-13.437014991209356
tp628
a(F51.27043863643138
F-13.393479976937087
tp629
a(F51.467937789074185
F-13.364691966910726
tp630
a(F51.66540539368568
F-13.336395779235303
tp631
a(F51.86284818571624
F-13.308461082750298
tp632
a(F52.15908469663427
F-13.267336766311475
tp633
a(F52.45567861798545
F-13.226785952851422
tp634
a(F52.554596157430844
F-13.213406924940811
tp635
a(F52.95035545187911
F-13.160924255851734
tp636
a(F53.04927698679631
F-13.147947228174791
tp637
a(F53.44525519739536
F-13.09715757791295
tp638
a(F53.544272642373876
F-13.084587120176801
tp639
a(F53.84124215747507
F-13.047485587828414
tp640
a(F54.03927001694407
F-13.023058035009257
tp641
a(F54.33638835653619
F-12.987200533981554
tp642
a(F54.53453260643553
F-12.963502268309803
tp643
a(F54.93121203907359
F-12.917345463465354
tp644
a(F55.03037979199038
F-12.90590990306916
tp645
a(F55.42799724349858
F-12.861074844713473
tp646
a(F55.52721639095867
F-12.849986785865275
tp647
a(F55.923683812526825
F-12.806754736184722
tp648
a(F56.02291151145325
F-12.796064582032741
tp649
a(F56.41999445936165
F-12.754270158256212
tp650
a(F56.51933945900184
F-12.743944969354374
tp651
a(F56.817050521104484
F-12.713666144628247
tp652
a(F57.0156694361879
F-12.693682673899357
tp653
a(F57.31385525076863
F-12.664325128997906
tp654
a(F57.51268039077852
F-12.645012629157007
tp655
a(F58.010207366150226
F-12.598134957942726
tp656
a(F58.010207366150226
F-12.598134957942726
tp657
a(F58.4082752949581
F-12.561890781559933
tp658
a(F58.507805111962725
F-12.552963480716139
tp659
a(F58.80642314242028
F-12.526137934695818
tp660
a(F59.00535970350143
F-12.508013646441386
tp661
a(F59.202666986159805
F-12.489273652597538
tp662
a(F59.3988747881982
F-12.469644392650068
tp663
a(F59.88728246559258
F-12.412739058408667
tp664
a(F60.08212808041383
F-12.387407969106052
tp665
a(F60.374039571642854
F-12.347025276568406
tp666
a(F60.471297644786915
F-12.33342185234002
tp667
a(F60.86045476203016
F-12.27856007372855
tp668
a(F60.957815287424495
F-12.264771626862698
tp669
a(F61.25083724055779
F-12.222969971860493
tp670
a(F61.44560364653453
F-12.195074610031948
tp671
a(F61.83514365538476
F-12.13876445744375
tp672
a(F61.932520492012316
F-12.124646439587801
tp673
a(F62.224733633627665
F-12.081980153031555
tp674
a(F62.51680261952143
F-12.039144117510883
tp675
a(F62.51680261952143
F-12.039144117510883
tp676
a(F63.003935059726565
F-11.966999890278077
tp677
a(F63.1987826499909
F-11.937992807337494
tp678
a(F63.49087274628599
F-11.894270747770422
tp679
a(F63.68576610235999
F-11.865054330481255
tp680
a(F63.978338035441794
F-11.821980912560786
tp681
a(F64.26956060283331
F-11.780419141096326
tp682
a(F64.3665640868608
F-11.76703401518449
tp683
a(F64.75421256337681
F-11.71697318327291
tp684
a(F64.85115067852078
F-11.704560443945287
tp685
a(F65.23902884498406
F-11.654931887473996
tp686
a(F65.33601106978801
F-11.642518191979375
tp687
a(F65.82077815685153
F-11.580451189485938
tp688
a(F65.82077815685153
F-11.580451189485938
tp689
a(F66.20892276551739
F-11.53085480338034
tp690
a(F66.40305677707586
F-11.506074916736104
tp691
a(F66.64772994350176
F-11.474874794973427
tp692
a(F66.8610791547765
F-11.44766673292273
tp693
a(F66.98051548946248
F-11.432429553884223
tp694
a(F67.0586470377205
F-11.422456714146922
tp695
a(F67.12613708057243
F-11.413841227898516
tp696
a(F67.19976773515415
F-11.404448357979156
tp697
a(F67.19976773515415
F-11.404448357979156
tp698
a(F67.19976773515415
F-11.404448357979156
tp699
a(F67.19976773515415
F-11.404448357979156
tp700
a(F67.19976773515415
F-11.404448357979156
tp701
a(F67.19976773515415
F-11.404448357979156
tp702
a(F67.19976773515415
F-11.404448357979156
tp703
a(F67.19976773515415
F-11.404448357979156
tp704
a(F67.19976773515415
F-11.404448357979156
tp705
a(F67.19976773515415
F-11.404448357979156
tp706
a(F67.19976773515415
F-11.404448357979156
tp707
a(F67.19976773515415
F-11.404448357979156
tp708
a(F67.19976773515415
F-11.404448357979156
tp709
a(F67.19976773515415
F-11.404448357979156
tp710
a(F67.19976773515415
F-11.404448357979156
tp711
a(F67.19976773515415
F-11.404448357979156
tp712
a(F67.19976773515415
F-11.404448357979156
tp713
a(F67.19976773515415
F-11.404448357979156
tp714
a(F67.19976773515415
F-11.404448357979156
tp715
a(F67.19976773515415
F-11.404448357979156
tp716
a(F67.19976773515415
F-11.404448357979156
tp717
a(F67.19976773515415
F-11.404448357979156
tp718
a(F67.19976773515415
F-11.404448357979156
tp719
a(F67.19976773515415
F-11.404448357979156
tp720
a(F67.19976773515415
F-11.404448357979156
tp721
a(F67.19976773515415
F-11.404448357979156
tp722
a(F67.19976773515415
F-11.404448357979156
tp723
a(F67.19976773515415
F-11.404448357979156
tp724
a(F67.19976773515415
F-11.404448357979156
tp725
a(F67.19976773515415
F-11.404448357979156
tp726
a(F67.19976773515415
F-11.404448357979156
tp727
a.