(lp0
(F-12.26627083730672
F-117.0739414537126
tp1
a(F-12.26627083730672
F-117.0739414537126
tp2
a(F-12.26627083730672
F-117.0739414537126
tp3
a(F-12.26627083730672
F-117.0739414537126
tp4
a(F-12.26627083730672
F-117.0739414537126
tp5
a(F-12.26627083730672
F-117.0739414537126
tp6
a(F-12.26627083730672
F-117.0739414537126
tp7
a(F-12.26627083730672
F-117.0739414537126
tp8
a(F-12.26627083730672
F-117.0739414537126
tp9
a(F-12.26627083730672
F-117.0739414537126
tp10
a(F-12.26627083730672
F-117.0739414537126
tp11
a(F-12.26627083730672
F-117.0739414537126
tp12
a(F-12.26627083730672
F-117.0739414537126
tp13
a(F-12.26627083730672
F-117.0739414537126
tp14
a(F-12.26627083730672
F-117.0739414537126
tp15
a(F-12.26627083730672
F-117.0739414537126
tp16
a(F-12.26627083730672
F-117.0739414537126
tp17
a(F-12.26627083730672
F-117.0739414537126
tp18
a(F-12.26627083730672
F-117.0739414537126
tp19
a(F-12.26627083730672
F-117.0739414537126
tp20
a(F-12.26627083730672
F-117.0739414537126
tp21
a(F-12.26627083730672
F-117.0739414537126
tp22
a(F-12.26627083730672
F-117.0739414537126
tp23
a(F-12.26627083730672
F-117.0739414537126
tp24
a(F-12.26627083730672
F-117.0739414537126
tp25
a(F-12.26627083730672
F-117.0739414537126
tp26
a(F-12.26627083730672
F-117.0739414537126
tp27
a(F-12.262514154587388
F-117.07662421327863
tp28
a(F-12.242913821398755
F-117.09063463112516
tp29
a(F-12.224327225914815
F-117.10392715424695
tp30
a(F-12.19743346356714
F-117.12317768742545
tp31
a(F-12.164912816318397
F-117.14647604460482
tp32
a(F-12.126098089434501
F-117.17427236020104
tp33
a(F-12.052613925330396
F-117.22660362594571
tp34
a(F-11.937430001364982
F-117.30780458176007
tp35
a(F-11.904744326734258
F-117.33057000576197
tp36
a(F-11.833036974780468
F-117.37984544773649
tp37
a(F-11.70895014474343
F-117.46294104703877
tp38
a(F-11.525291482117686
F-117.58261851434973
tp39
a(F-11.47492299486697
F-117.61443168899922
tp40
a(F-11.367361920810332
F-117.68043801212471
tp41
a(F-11.187235954900034
F-117.78559557274644
tp42
a(F-10.925716064805787
F-117.92978607239719
tp43
a(F-10.85569347969802
F-117.96669212797849
tp44
a(F-10.708246478592532
F-118.04109002981535
tp45
a(F-10.5538873034794
F-118.1167317989363
tp46
a(F-10.128851269035671
F-118.31505740456203
tp47
a(F-9.95363726050578
F-118.39577170784729
tp48
a(F-9.687665193675452
F-118.51780987182362
tp49
a(F-9.598871580076658
F-118.55845588280633
tp50
a(F-9.509882674415055
F-118.59913140267304
tp51
a(F-9.061614575974836
F-118.80021498673443
tp52
a(F-8.791017286042765
F-118.91706487530763
tp53
a(F-8.60991011048439
F-118.99342949707997
tp54
a(F-8.60991011048439
F-118.99342949707997
tp55
a(F-8.15346138744098
F-119.1766670248305
tp56
a(F-8.15346138744098
F-119.1766670248305
tp57
a(F-7.690690544597913
F-119.34232203762919
tp58
a(F-7.409655688666703
F-119.43194064737409
tp59
a(F-7.221542124883291
F-119.48940903508017
tp60
a(F-6.9362863225813385
F-119.56549940652712
tp61
a(F-6.745246275928657
F-119.61328246698137
tp62
a(F-6.455944576781499
F-119.67255973807825
tp63
a(F-6.2619802357686885
F-119.70657398988057
tp64
a(F-5.968993928249957
F-119.74551551055286
tp65
a(F-5.773095660536598
F-119.76715316306209
tp66
a(F-5.4778841849095254
F-119.78532135429317
tp67
a(F-5.379709850206472
F-119.78906545245265
tp68
a(F-4.986858015656639
F-119.78440668445366
tp69
a(F-4.790347168384832
F-119.77632867725482
tp70
a(F-4.495241030839933
F-119.75417692834434
tp71
a(F-4.39693887284865
F-119.74609972101199
tp72
a(F-4.003653793013986
F-119.70769244553149
tp73
a(F-3.8068521389724075
F-119.68718623185995
tp74
a(F-3.610120321407599
F-119.66562241839718
tp75
a(F-3.4123972020385827
F-119.64285249007789
tp76
a(F-3.2156669185740725
F-119.61898020929658
tp77
a(F-2.9214209952811383
F-119.57921285941389
tp78
a(F-2.5297008623251713
F-119.52072906779256
tp79
a(F-2.4319663226562116
F-119.50472056088759
tp80
a(F-2.236843896091388
F-119.47004142497842
tp81
a(F-1.9455099710590764
F-119.41183254466871
tp82
a(F-1.5589452502535783
F-119.32427722000698
tp83
a(F-1.4627306402563311
F-119.30032075333189
tp84
a(F-1.2713448641183824
F-119.24851737944206
tp85
a(F-0.9870889354415193
F-119.1614004100657
tp86
a(F-0.6121000284380593
F-119.03279134590883
tp87
a(F-0.5195763863361285
F-118.99804440203097
tp88
a(F-0.3364110040804884
F-118.92394224200171
tp89
a(F-0.1546496601821598
F-118.8462743242942
tp90
a(F0.2946191272369461
F-118.63814420357092
tp91
a(F0.47332097820860936
F-118.55232879687031
tp92
a(F0.5625629329717532
F-118.50904328982799
tp93
a(F0.8298930087320222
F-118.37808815376223
tp94
a(F1.1861600071679355
F-118.20238796249471
tp95
a(F1.2751585107598047
F-118.15824072071783
tp96
a(F1.4529286765101526
F-118.0696081411208
tp97
a(F1.7190307365294624
F-117.93593050458365
tp98
a(F2.074302102835656
F-117.75614327319236
tp99
a(F2.1628793880591783
F-117.71109651964838
tp100
a(F2.516514651012301
F-117.530068929722
tp101
a(F2.516514651012301
F-117.530068929722
tp102
a(F2.957403492570469
F-117.3012414092684
tp103
a(F3.1328359567248474
F-117.20844776058901
tp104
a(F3.1328359567248474
F-117.20844776058901
tp105
a(F3.5688510986967583
F-116.97040726559419
tp106
a(F3.5688510986967583
F-116.97040726559419
tp107
a(F3.9984070578813853
F-116.72155874714134
tp108
a(F3.9984070578813853
F-116.72155874714134
tp109
a(F4.419445611567712
F-116.45869031887236
tp110
a(F4.419445611567712
F-116.45869031887236
tp111
a(F4.828729004644044
F-116.17793393194323
tp112
a(F5.0667191590383425
F-115.99955487581755
tp113
a(F5.223697399519464
F-115.87837015792459
tp114
a(F5.223697399519464
F-115.87837015792459
tp115
a(F5.607374441465747
F-115.563324330975
tp116
a(F5.607374441465747
F-115.563324330975
tp117
a(F5.97997379262993
F-115.2350394075458
tp118
a(F5.97997379262993
F-115.2350394075458
tp119
a(F6.338581666511779
F-114.8916564859997
tp120
a(F6.548798768600045
F-114.679507701161
tp121
a(F6.688142958846604
F-114.53786227470924
tp122
a(F6.895981537225548
F-114.32412869412406
tp123
a(F7.034338058565511
F-114.18134317546556
tp124
a(F7.034338058565511
F-114.18134317546556
tp125
a(F7.378311813830007
F-113.82260508753446
tp126
a(F7.378311813830007
F-113.82260508753446
tp127
a(F7.718054740638099
F-113.46017466711014
tp128
a(F7.918082894994317
F-113.23910666816964
tp129
a(F7.984414396054221
F-113.16506473067562
tp130
a(F8.244217283359854
F-112.86405107010702
tp131
a(F8.371942839790226
F-112.71165571991199
tp132
a(F8.557853724929686
F-112.47840771324393
tp133
a(F8.679570472925711
F-112.32116315240378
tp134
a(F8.854965767246966
F-112.07987870659291
tp135
a(F8.969275912219176
F-111.91720979746465
tp136
a(F9.131679986854271
F-111.66702890607773
tp137
a(F9.236584550811315
F-111.49813486366716
tp138
a(F9.382657080514019
F-111.23811673118001
tp139
a(F9.476540766927847
F-111.06279419049251
tp140
a(F9.604505754219748
F-110.79414494067899
tp141
a(F9.68711576301385
F-110.61382536310413
tp142
a(F9.802130409561965
F-110.33845497572113
tp143
a(F9.877505807629442
F-110.15366342182452
tp144
a(F9.986307402003977
F-109.87525237599124
tp145
a(F10.058213132401328
F-109.6894925467061
tp146
a(F10.058213132401328
F-109.6894925467061
tp147
a(F10.200714936139663
F-109.31620140024857
tp148
a(F10.236134859687251
F-109.22278283755679
tp149
a(F10.41093286487019
F-108.75454685274035
tp150
a(F10.514050987055771
F-108.47321438754493
tp151
a(F10.582483981008084
F-108.28538589811671
tp152
a(F10.582483981008084
F-108.28538589811671
tp153
a(F10.751069028393859
F-107.815034016064
tp154
a(F10.817709495137105
F-107.62647196730477
tp155
a(F10.883527301392878
F-107.43790796078149
tp156
a(F10.948341020651554
F-107.24902593766183
tp157
a(F11.011894939191173
F-107.0596160932835
tp158
a(F11.162669893938416
F-106.58385680547441
tp159
a(F11.19172157116342
F-106.48831855309743
tp160
a(F11.300311732759052
F-106.10378265278649
tp161
a(F11.35140287733869
F-105.9106621099737
tp162
a(F11.421264509466164
F-105.61936426312805
tp163
a(F11.46575881073444
F-105.42501997785324
tp164
a(F11.529629910384152
F-105.13264241575614
tp165
a(F11.571788687158518
F-104.93741207691042
tp166
a(F11.63406242703111
F-104.64349585905178
tp167
a(F11.654554416635728
F-104.5457431339405
tp168
a(F11.674948746956565
F-104.44794415328
tp169
a(F11.774200083504889
F-103.95903774617022
tp170
a(F11.832164169953511
F-103.66557059446885
tp171
a(F11.870483273434857
F-103.46962582809442
tp172
a(F11.90817271534615
F-103.27357468363937
tp173
a(F11.945381405960198
F-103.07738913275107
tp174
a(F11.982200834566285
F-102.88089255402615
tp175
a(F12.036190667182684
F-102.58643828124681
tp176
a(F12.089466804144491
F-102.29187713634943
tp177
a(F12.124434594237803
F-102.09534850050728
tp178
a(F12.158815234853378
F-101.89876169682336
tp179
a(F12.209363640011329
F-101.60367740563696
tp180
a(F12.275528756681902
F-101.20987574268717
tp181
a(F12.291812422143039
F-101.11141983989589
tp182
a(F12.3556566615462
F-100.71734363321251
tp183
a(F12.3556566615462
F-100.71734363321251
tp184
a(F12.432790281961061
F-100.22444270999938
tp185
a(F12.463030338272134
F-100.02727253467268
tp186
a(F12.507285720538695
F-99.73176426723897
tp187
a(F12.521925647458618
F-99.63319394950426
tp188
a(F12.536473659460041
F-99.53451289514916
tp189
a(F12.607606841264332
F-99.03904372806568
tp190
a(F12.635296478437194
F-98.84093030573433
tp191
a(F12.662519442374695
F-98.64296295140706
tp192
a(F12.689346441651482
F-98.44493866064698
tp193
a(F12.728709637007448
F-98.14756090776515
tp194
a(F12.767366728172865
F-97.85004236670585
tp195
a(F12.792714070998871
F-97.65157009460488
tp196
a(F12.817547054267273
F-97.45309592913716
tp197
a(F12.841968850912806
F-97.25459089242669
tp198
a(F12.901201112439123
F-96.75794567812993
tp199
a(F12.924695041128597
F-96.55926072403605
tp200
a(F12.960676467812736
F-96.26152466721857
tp201
a(F12.985269459863668
F-96.06306554490679
tp202
a(F12.985269459863668
F-96.06306554490679
tp203
a(F13.049552224509265
F-95.5686269547799
tp204
a(F13.049552224509265
F-95.5686269547799
tp205
a(F13.111757790211463
F-95.07435889875094
tp206
a(F13.111757790211463
F-95.07435889875094
tp207
a(F13.147651518134035
F-94.77762249642139
tp208
a(F13.19432151693946
F-94.38187461858942
tp209
a(F13.216949076203859
F-94.18410048175635
tp210
a(F13.26110576591924
F-93.78811068470377
tp211
a(F13.26110576591924
F-93.78811068470377
tp212
a(F13.313928673977838
F-93.2925991946987
tp213
a(F13.334612778535819
F-93.09364213541866
tp214
a(F13.334612778535819
F-93.09364213541866
tp215
a(F13.374547353040633
F-92.69740820300134
tp216
a(F13.384536358611188
F-92.59832094134066
tp217
a(F13.436298161053706
F-92.1025161320055
tp218
a(F13.458199120149219
F-91.90761141031074
tp219
a(F13.481399341868505
F-91.7129608182926
tp220
a(F13.505243061160884
F-91.51888711151184
tp221
a(F13.541361468201412
F-91.22780707310713
tp222
a(F13.57753480735016
F-90.93682301435801
tp223
a(F13.601699241677537
F-90.74277511066285
tp224
a(F13.625928447754742
F-90.54869414195362
tp225
a(F13.650202990642352
F-90.35464884102106
tp226
a(F13.686728863751222
F-90.06361080416538
tp227
a(F13.723390984348173
F-89.7723382002086
tp228
a(F13.73563048090329
F-89.6752248896809
tp229
a(F13.79712561668678
F-89.18958706468084
tp230
a(F13.79712561668678
F-89.18958706468084
tp231
a(F13.861756823237569
F-88.70497012136403
tp232
a(F13.889385171447932
F-88.51136177010267
tp233
a(F13.918215653401184
F-88.317880445403
tp234
a(F13.94760425929999
F-88.12423060312221
tp235
a(F13.991995487562077
F-87.8333880791717
tp236
a(F14.051457377044668
F-87.4455880420448
tp237
a(F14.066484383833256
F-87.3478226702892
tp238
a(F14.09636200907733
F-87.15393734220916
tp239
a(F14.141348587615354
F-86.86314455182381
tp240
a(F14.201599261502892
F-86.47517888863462
tp241
a(F14.216715694269446
F-86.3781641627024
tp242
a(F14.247027236248984
F-86.18410234934969
tp243
a(F14.277430426637205
F-85.98994692822093
tp244
a(F14.353767563113767
F-85.50470395701412
tp245
a(F14.384444153790167
F-85.31058779125371
tp246
a(F14.430613459859197
F-85.0195137450355
tp247
a(F14.461469157549283
F-84.82529704434897
tp248
a(F14.461469157549283
F-84.82529704434897
tp249
a(F14.539043882538488
F-84.33960705484884
tp250
a(F14.585866550587628
F-84.04810509923831
tp251
a(F14.617156141345998
F-83.85376463141729
tp252
a(F14.664260066394462
F-83.56224120796584
tp253
a(F14.69572868369662
F-83.36795186859298
tp254
a(F14.743119788462861
F-83.0763249779071
tp255
a(F14.774756047638387
F-82.88198603610127
tp256
a(F14.822402465290962
F-82.59027836301121
tp257
a(F14.854231211799618
F-82.3958166709607
tp258
a(F14.870179099665934
F-82.2985804129111
tp259
a(F14.91817313171491
F-82.00685034459104
tp260
a(F14.966480671958124
F-81.71513214702007
tp261
a(F14.999200666481624
F-81.52070815828161
tp262
a(F15.032930878895185
F-81.32622582092259
tp263
a(F15.067727334760855
F-81.13245559418914
tp264
a(F15.1233017060853
F-80.84260800710722
tp265
a(F15.202624886715904
F-80.45727150910652
tp266
a(F15.268560603745975
F-80.17024486948097
tp267
a(F15.290888027529933
F-80.07459166354661
tp268
a(F15.313496558190275
F-79.97891539760359
tp269
a(F15.428222228941388
F-79.50053663119682
tp270
a(F15.428222228941388
F-79.50053663119682
tp271
a(F15.543995882345964
F-79.02206683494038
tp272
a(F15.590472655325916
F-78.83103417487307
tp273
a(F15.637176933823287
F-78.63996233149923
tp274
a(F15.68404639573041
F-78.44883241834147
tp275
a(F15.754733355718868
F-78.16198450921053
tp276
a(F15.849388159743198
F-77.77944218122953
tp277
a(F15.873137940671377
F-77.68379597042546
tp278
a(F15.920742882302674
F-77.49272337803146
tp279
a(F15.968541505426272
F-77.3015625865826
tp280
a(F16.088823070123382
F-76.82360192049599
tp281
a(F16.13714186699547
F-76.63235359827706
tp282
a(F16.210086364654305
F-76.34528321016447
tp283
a(F16.258791446404576
F-76.15401117432249
tp284
a(F16.332178690509558
F-75.86728391580418
tp285
a(F16.381406385901943
F-75.67538406583978
tp286
a(F16.45530087798126
F-75.38854347099995
tp287
a(F16.504694209516547
F-75.19735080977856
tp288
a(F16.579219447761886
F-74.91049983590712
tp289
a(F16.628992117409727
F-74.71936086632684
tp290
a(F16.704033514969638
F-74.43266730813022
tp291
a(F16.75413806339815
F-74.24160774431776
tp292
a(F16.75413806339815
F-74.24160774431776
tp293
a(F16.879968061822332
F-73.76407019775142
tp294
a(F16.879968061822332
F-73.76407019775142
tp295
a(F17.00657929792198
F-73.28643038040843
tp296
a(F17.00657929792198
F-73.28643038040843
tp297
a(F17.134127715946295
F-72.8087425340577
tp298
a(F17.211153522459085
F-72.52209899062773
tp299
a(F17.23683471522691
F-72.42663500598071
tp300
a(F17.340041669120684
F-72.04450215399646
tp301
a(F17.391772227305232
F-71.85352746355304
tp302
a(F17.417674051530934
F-71.75808067574202
tp303
a(F17.49575554092585
F-71.47141610514664
tp304
a(F17.600215416243227
F-71.0894383295903
tp305
a(F17.626375913414186
F-70.99397993230615
tp306
a(F17.73137532862473
F-70.6120337973136
tp307
a(F17.73137532862473
F-70.6120337973136
tp308
a(F17.8104716012615
F-70.3257389213582
tp309
a(F17.9165194955323
F-69.9432777874772
tp310
a(F17.9165194955323
F-69.9432777874772
tp311
a(F18.04961338799677
F-69.46608304762266
tp312
a(F18.04961338799677
F-69.46608304762266
tp313
a(F18.183282419974272
F-68.98919692614223
tp314
a(F18.26381947783383
F-68.70327281497704
tp315
a(F18.317655504198687
F-68.51253699332707
tp316
a(F18.398750662013267
F-68.22648529199517
tp317
a(F18.45290962201598
F-68.03579001122253
tp318
a(F18.534394823535628
F-67.74987394612394
tp319
a(F18.58882207782314
F-67.55924839304349
tp320
a(F18.67071045234895
F-67.27331163191303
tp321
a(F18.72534224668084
F-67.08277302027655
tp322
a(F18.807595973940366
F-66.79677513960493
tp323
a(F18.862540398531532
F-66.60609684739204
tp324
a(F18.862540398531532
F-66.60609684739204
tp325
a(F19.000435860586805
F-66.12956991895841
tp326
a(F19.083569130451806
F-65.84381394339688
tp327
a(F19.139099566782072
F-65.6532595943995
tp328
a(F19.166900862011303
F-65.557998542808
tp329
a(F19.250486469605693
F-65.2722350530676
tp330
a(F19.362197109577135
F-64.89111776314661
tp331
a(F19.39015867172438
F-64.79587974277355
tp332
a(F19.44636911151656
F-64.60480015621741
tp333
a(F19.530628746517692
F-64.31919027575069
tp334
a(F19.64316220832211
F-63.938579984445255
tp335
a(F19.671370085496168
F-63.84339078744665
tp336
a(F19.727908080036418
F-63.65298411274573
tp337
a(F19.78457821655036
F-63.46252300610592
tp338
a(F19.86976251680579
F-63.17708900535579
tp339
a(F19.983577706137186
F-62.796621321932015
tp340
a(F19.983577706137186
F-62.796621321932015
tp341
a(F20.12657341423909
F-62.3207580133332
tp342
a(F20.12657341423909
F-62.3207580133332
tp343
a(F20.270122139791038
F-61.845169883667864
tp344
a(F20.270122139791038
F-61.845169883667864
tp345
a(F20.414179660238123
F-61.36967072803511
tp346
a(F20.414179660238123
F-61.36967072803511
tp347
a(F20.558658857145844
F-60.89440840939308
tp348
a(F20.58760090867602
F-60.79936322682981
tp349
a(F20.67461636011646
F-60.51421317575446
tp350
a(F20.76174427860419
F-60.22920512793315
tp351
a(F20.81997027203869
F-60.03902914129047
tp352
a(F20.936640063307852
F-59.6588984772881
tp353
a(F20.936640063307852
F-59.6588984772881
tp354
a(F21.02439109227186
F-59.37377112910838
tp355
a(F21.141533835207632
F-58.99385754073208
tp356
a(F21.22983155863483
F-58.70825290291468
tp357
a(F21.25923838401371
F-58.613209667079836
tp358
a(F21.376901893038212
F-58.233110285290046
tp359
a(F21.4354189288874
F-58.04304742432064
tp360
a(F21.521013085688086
F-57.759624494827015
tp361
a(F21.577306457005268
F-57.57068059030818
tp362
a(F21.658512624104976
F-57.28656189911287
tp363
a(F21.712260438266306
F-57.09711082296892
tp364
a(F21.765738822880113
F-56.90762719152282
tp365
a(F21.819060035853983
F-56.718067895268824
tp366
a(F21.87223629527427
F-56.52846643248572
tp367
a(F21.951648850219424
F-56.24386413621693
tp368
a(F22.030808198387344
F-55.95911204410565
tp369
a(F22.083403078970367
F-55.76922791902142
tp370
a(F22.135813230964335
F-55.57923464347854
tp371
a(F22.214060606247624
F-55.29420194657841
tp372
a(F22.31803294651498
F-54.91397050779627
tp373
a(F22.34394877980969
F-54.81887571347039
tp374
a(F22.44713764778089
F-54.43826802350527
tp375
a(F22.44713764778089
F-54.43826802350527
tp376
a(F22.575232147862565
F-53.96225612501287
tp377
a(F22.626258842786264
F-53.771755762330194
tp378
a(F22.70276476390626
F-53.484891267263464
tp379
a(F22.75351434546562
F-53.294138196611264
tp380
a(F22.75351434546562
F-53.294138196611264
tp381
a(F22.879608146537976
F-52.817298190273824
tp382
a(F22.879608146537976
F-52.817298190273824
tp383
a(F23.004932460749572
F-52.34007827735992
tp384
a(F23.004932460749572
F-52.34007827735992
tp385
a(F23.104661126661
F-51.95775280549521
tp386
a(F23.15429685386635
F-51.76653768195417
tp387
a(F23.203783131220895
F-51.57533525720364
tp388
a(F23.327040937489965
F-51.09691201263951
tp389
a(F23.376175204616604
F-50.90546540919194
tp390
a(F23.449536280888907
F-50.61817213082025
tp391
a(F23.49835297954704
F-50.42665182586692
tp392
a(F23.522701833143948
F-50.3308815881626
tp393
a(F23.59548088101849
F-50.04349113016304
tp394
a(F23.692180719709413
F-49.6600818526279
tp395
a(F23.716294012897848
F-49.56421399630652
tp396
a(F23.812439834853052
F-49.18060568823032
tp397
a(F23.812439834853052
F-49.18060568823032
tp398
a(F23.884160318603787
F-48.89274793344876
tp399
a(F23.97949081870292
F-48.50871914015905
tp400
a(F24.050622174797535
F-48.22071926192259
tp401
a(F24.098269865044248
F-48.02786501100123
tp402
a(F24.098269865044248
F-48.02786501100123
tp403
a(F24.216623994555487
F-47.5471771307233
tp404
a(F24.216623994555487
F-47.5471771307233
tp405
a(F24.33428453291519
F-47.06622834639748
tp406
a(F24.33428453291519
F-47.06622834639748
tp407
a(F24.451240306403673
F-46.585175841189304
tp408
a(F24.451240306403673
F-46.585175841189304
tp409
a(F24.567521099472074
F-46.103866454752286
tp410
a(F24.636969739645618
F-45.814766425785116
tp411
a(F24.683165519937283
F-45.62212490877729
tp412
a(F24.683165519937283
F-45.62212490877729
tp413
a(F24.79810508136023
F-45.14027855587857
tp414
a(F24.79810508136023
F-45.14027855587857
tp415
a(F24.89065070019366
F-44.75468380303997
tp416
a(F24.985608802091175
F-44.37243018159899
tp417
a(F25.034291507228577
F-44.18208407225533
tp418
a(F25.058799955613953
F-44.087493932673
tp419
a(F25.133069647935365
F-43.803784117244845
tp420
a(F25.23204340768898
F-43.42573774188641
tp421
a(F25.256777851480976
F-43.33123514858261
tp422
a(F25.306236139206785
F-43.142245311677485
tp423
a(F25.355696550880047
F-42.95323614772387
tp424
a(F25.42991194364689
F-42.66963545473701
tp425
a(F25.528850498377025
F-42.29160370370456
tp426
a(F25.578531928332882
F-42.10175503269598
tp427
a(F25.628047026259075
F-41.91254293317442
tp428
a(F25.677548201898478
F-41.72339067356737
tp429
a(F25.72708135155868
F-41.53409909492039
tp430
a(F25.80139008489145
F-41.250086097838064
tp431
a(F25.900516866744322
F-40.871305707268235
tp432
a(F25.974866925572243
F-40.58719354805348
tp433
a(F25.999632645924603
F-40.49255324173804
tp434
a(F26.09881292813189
F-40.11356501367071
tp435
a(F26.123605176578984
F-40.01884698521245
tp436
a(F26.22292697222116
F-39.639388137313546
tp437
a(F26.272567561405115
F-39.44965186422033
tp438
a(F26.272567561405115
F-39.44965186422033
tp439
a(F26.371795290726286
F-39.07026455236714
tp440
a(F26.47093025848611
F-38.69083510656113
tp441
a(F26.52050900915579
F-38.50101724534842
tp442
a(F26.594858789602657
F-38.216269496203005
tp443
a(F26.644457477011787
F-38.026367671310794
tp444
a(F26.718981725732924
F-37.74123567262031
tp445
a(F26.76866103166115
F-37.55122050476739
tp446
a(F26.84316921672544
F-37.266348671250206
tp447
a(F26.89284575745046
F-37.07630959625962
tp448
a(F26.917676481475347
F-36.981299894851304
tp449
a(F26.992165280594893
F-36.69614393593939
tp450
a(F27.09168046144396
F-36.31510332670553
tp451
a(F27.11651352332007
F-36.22002255146019
tp452
a(F27.166192233668642
F-36.02981104414139
tp453
a(F27.21590104203941
F-35.83947048465983
tp454
a(F27.34013659429187
F-35.363737033571184
tp455
a(F27.389849115431616
F-35.17335480968529
tp456
a(F27.389849115431616
F-35.17335480968529
tp457
a(F27.514103513289555
F-34.69741970418943
tp458
a(F27.514103513289555
F-34.69741970418943
tp459
a(F27.64030727549756
F-34.221782030064965
tp460
a(F27.717834085807873
F-33.936696481662565
tp461
a(F27.769700223787417
F-33.74648401054614
tp462
a(F27.769700223787417
F-33.74648401054614
tp463
a(F27.899314390757556
F-33.271513448697185
tp464
a(F27.92525995110812
F-33.17647453274993
tp465
a(F28.003116974876107
F-32.891355893711115
tp466
a(F28.081027699765965
F-32.60612356738828
tp467
a(F28.133004203723086
F-32.415833411864234
tp468
a(F28.185008704747787
F-32.22550178747735
tp469
a(F28.28907104252344
F-31.84487387746856
tp470
a(F28.28907104252344
F-31.84487387746856
tp471
a(F28.41927291319652
F-31.368912882708234
tp472
a(F28.471347138545713
F-31.17848997532538
tp473
a(F28.523562844166353
F-30.987509697208182
tp474
a(F28.575645852285923
F-30.797010659915365
tp475
a(F28.653736716153563
F-30.511458737043615
tp476
a(F28.731885143624737
F-30.22575673248489
tp477
a(F28.784014063675567
F-30.035173817557933
tp478
a(F28.88827057762238
F-29.653824405719806
tp479
a(F28.88827057762238
F-29.653824405719806
tp480
a(F28.96637733486588
F-29.36796977691164
tp481
a(F29.070551168988604
F-28.986825737025963
tp482
a(F29.09658675104322
F-28.891573688104696
tp483
a(F29.17480125802254
F-28.605646442449448
tp484
a(F29.27920386068715
F-28.223981658438458
tp485
a(F29.305289318681915
F-28.128619884206714
tp486
a(F29.409666116317435
F-27.747099272864133
tp487
a(F29.409666116317435
F-27.747099272864133
tp488
a(F29.488014381167837
F-27.460925878718975
tp489
a(F29.592594092921214
F-27.079021224273745
tp490
a(F29.67123248271164
F-26.792732186637515
tp491
a(F29.723965854494185
F-26.601880100978796
tp492
a(F29.80458031502528
F-26.317762295082883
tp493
a(F29.85910621074476
F-26.12862845099334
tp494
a(F29.942360619164567
F-25.845271847978847
tp495
a(F29.99798195637222
F-25.656521453553193
tp496
a(F29.99798195637222
F-25.656521453553193
tp497
a(F30.137892594464844
F-25.18455722473917
tp498
a(F30.222251830203966
F-24.901792084762754
tp499
a(F30.278641310205067
F-24.713329052482976
tp500
a(F30.36369036371429
F-24.430376163100618
tp501
a(F30.420493290062144
F-24.241789982896336
tp502
a(F30.505957275860695
F-23.959177145021535
tp503
a(F30.534581460365338
F-23.864866015356043
tp504
a(F30.650817082212157
F-23.488672131397784
tp505
a(F30.709737398410088
F-23.301006090720584
tp506
a(F30.80170606082952
F-23.020226827280997
tp507
a(F30.8643591876752
F-22.833327939239453
tp508
a(F30.963501219460948
F-22.554821911107293
tp509
a(F31.0307695684132
F-22.36952612815283
tp510
a(F31.0307695684132
F-22.36952612815283
tp511
a(F31.20226269791521
F-21.907214958716327
tp512
a(F31.20226269791521
F-21.907214958716327
tp513
a(F31.37489988118386
F-21.445603191120156
tp514
a(F31.409580325912803
F-21.353215674439245
tp515
a(F31.51404714265669
F-21.076307708906192
tp516
a(F31.653883051861442
F-20.70706158917932
tp517
a(F31.68894123645022
F-20.61477825351667
tp518
a(F31.759206575777817
F-20.43029612272387
tp519
a(F31.82961366052576
F-20.245858912151157
tp520
a(F31.935801114109502
F-19.96881136073222
tp521
a(F32.042153291316126
F-19.692291853366665
tp522
a(F32.07766744203988
F-19.600106991677215
tp523
a(F32.25751465897888
F-19.14024733228482
tp524
a(F32.368625625943004
F-18.865697646691203
tp525
a(F32.443797193581936
F-18.683250277493684
tp526
a(F32.443797193581936
F-18.683250277493684
tp527
a(F32.64125606941845
F-18.230781457545802
tp528
a(F32.64125606941845
F-18.230781457545802
tp529
a(F32.85144683925123
F-17.784531637856787
tp530
a(F32.85144683925123
F-17.784531637856787
tp531
a(F33.06982365345699
F-17.341576385196362
tp532
a(F33.06982365345699
F-17.341576385196362
tp533
a(F33.28977691536364
F-16.89921019260237
tp534
a(F33.28977691536364
F-16.89921019260237
tp535
a(F33.51091106963606
F-16.45744054938828
tp536
a(F33.64429430735791
F-16.192882246703004
tp537
a(F33.73345006793312
F-16.01642253533462
tp538
a(F33.778181841670175
F-15.928206619549236
tp539
a(F33.91363206286697
F-15.664431307263095
tp540
a(F34.09676554034146
F-15.31379659197016
tp541
a(F34.14327943297801
F-15.226626141629442
tp542
a(F34.237577259180576
F-15.052780067663283
tp543
a(F34.38382069024603
F-14.794204064766525
tp544
a(F34.584061757658624
F-14.45299806805671
tp545
a(F34.63558376603407
F-14.368554322896287
tp546
a(F34.8490408553433
F-14.035655032533173
tp547
a(F34.8490408553433
F-14.035655032533173
tp548
a(F35.13521369519995
F-13.63194722660905
tp549
a(F35.25427737115692
F-13.473747003061407
tp550
a(F35.25427737115692
F-13.473747003061407
tp551
a(F35.569380601489094
F-13.092219069687605
tp552
a(F35.569380601489094
F-13.092219069687605
tp553
a(F35.90963357495065
F-12.732490565762541
tp554
a(F35.90963357495065
F-12.732490565762541
tp555
a(F36.27383458373454
F-12.399141858882581
tp556
a(F36.27383458373454
F-12.399141858882581
tp557
a(F36.501758096461735
F-12.208381216282858
tp558
a(F36.81086123220505
F-11.959916386588752
tp559
a(F36.96663636536626
F-11.836858277242447
tp560
a(F37.12266356704454
F-11.71417522555388
tp561
a(F37.43581389448068
F-11.469591000707439
tp562
a(F37.671426892050306
F-11.286978272524
tp563
a(F37.75003636097576
F-11.22617164710199
tp564
a(F38.06554168954066
F-10.984496140826746
tp565
a(F38.22392610837562
F-10.864493280617713
tp566
a(F38.46361282232986
F-10.68739788339764
tp567
a(F38.62466217132116
F-10.569753998901552
tp568
a(F38.868767423729764
F-10.39835745871882
tp569
a(F39.03250117558499
F-10.285444213998085
tp570
a(F39.03250117558499
F-10.285444213998085
tp571
a(F39.44936107350836
F-10.014305237456819
tp572
a(F39.53384802028387
F-9.961865206931932
tp573
a(F39.79147757281251
F-9.811376954832483
tp574
a(F40.0523197149914
F-9.666925023833508
tp575
a(F40.228412572375234
F-9.574644830921127
tp576
a(F40.40720473695044
F-9.487348620252819
tp577
a(F40.588014343839
F-9.404469602656215
tp578
a(F41.048020413460016
F-9.217282023007717
tp579
a(F41.14097915494053
F-9.181781344570917
tp580
a(F41.51545418534296
F-9.047097532348015
tp581
a(F41.70343737664235
F-8.98138807884804
tp582
a(F41.98604372539191
F-8.884214968740935
tp583
a(F42.17468802731726
F-8.819819048993148
tp584
a(F42.17468802731726
F-8.819819048993148
tp585
a(F42.64729589646228
F-8.66246236007341
tp586
a(F42.64729589646228
F-8.66246236007341
tp587
a(F43.122801693060445
F-8.513435570226987
tp588
a(F43.40928752166569
F-8.427621491135795
tp589
a(F43.600317242201456
F-8.370770958916395
tp590
a(F43.88788155403389
F-8.286399761331985
tp591
a(F43.98347821509735
F-8.258462922725073
tp592
a(F44.27066741047296
F-8.175262268851059
tp593
a(F44.462249570103396
F-8.12037924142092
tp594
a(F44.65406042893911
F-8.065869551144917
tp595
a(F44.94181841641275
F-7.985059556659848
tp596
a(F45.326032852279994
F-7.878327821990262
tp597
a(F45.422186748281696
F-7.851854515468384
tp598
a(F45.61460601018176
F-7.79929960382521
tp599
a(F45.80701467576797
F-7.747506210810584
tp600
a(F46.28962540635888
F-7.624220951289021
tp601
a(F46.48319109106206
F-7.576924846018467
tp602
a(F46.67736629512255
F-7.532160085731359
tp603
a(F46.872051495977395
F-7.4896710471752
tp604
a(F47.16543771892239
F-7.431765215628632
tp605
a(F47.36143855439925
F-7.396144241743446
tp606
a(F47.754912871070076
F-7.3338477216347675
tp607
a(F47.95248551393982
F-7.307565544658587
tp608
a(F47.95248551393982
F-7.307565544658587
tp609
a(F48.448037355981384
F-7.261678470050214
tp610
a(F48.6466999226424
F-7.249144326506656
tp611
a(F48.84568880273706
F-7.238448976058719
tp612
a(F49.04553274539053
F-7.229108033539362
tp613
a(F49.34446024307731
F-7.216474021950301
tp614
a(F49.74299243504982
F-7.201097334375576
tp615
a(F49.74299243504982
F-7.201097334375576
tp616
a(F50.141636209185194
F-7.187552545003085
tp617
a(F50.24133150048062
F-7.18436026053371
tp618
a(F50.740147998006904
F-7.170268650367579
tp619
a(F50.740147998006904
F-7.170268650367579
tp620
a(F51.23899106021854
F-7.159026004486135
tp621
a(F51.23899106021854
F-7.159026004486135
tp622
a(F51.638088802653755
F-7.152002763084105
tp623
a(F51.73782682564023
F-7.150427602390565
tp624
a(F52.23644733239965
F-7.144488828615838
tp625
a(F52.23644733239965
F-7.144488828615838
tp626
a(F52.6356088261314
F-7.141558488593256
tp627
a(F52.735408208072904
F-7.14099822945964
tp628
a(F53.23416976637223
F-7.139995176501103
tp629
a(F53.23416976637223
F-7.139995176501103
tp630
a(F53.73318529092771
F-7.141385873794345
tp631
a(F53.73318529092771
F-7.141385873794345
tp632
a(F54.23208535380442
F-7.1453185392415595
tp633
a(F54.23208535380442
F-7.1453185392415595
tp634
a(F54.731849457970874
F-7.151748197285192
tp635
a(F54.731849457970874
F-7.151748197285192
tp636
a(F55.23113309435786
F-7.160553780966907
tp637
a(F55.330975895855076
F-7.16251333273773
tp638
a(F55.630300003195394
F-7.169102009759847
tp639
a(F55.929760877070805
F-7.17643764858705
tp640
a(F56.12935981122732
F-7.181722041317928
tp641
a(F56.32892472880963
F-7.187433858051631
tp642
a(F56.52849746619307
F-7.193477637756925
tp643
a(F56.827947379311325
F-7.20325713081671
tp644
a(F57.2271371535169
F-7.217329796570665
tp645
a(F57.32691479314925
F-7.221045429564845
tp646
a(F57.6260975492255
F-7.2330499168496
tp647
a(F57.92532039439875
F-7.245675627952018
tp648
a(F58.124835202746716
F-7.254497288481863
tp649
a(F58.32429167811438
F-7.263712852387307
tp650
a(F58.623602761684396
F-7.278299098935587
tp651
a(F58.922868305162986
F-7.293387323756566
tp652
a(F59.122340589469616
F-7.303565035980478
tp653
a(F59.321858997567915
F-7.313520082105429
tp654
a(F59.52113567222102
F-7.322964815248379
tp655
a(F59.81610381068428
F-7.335054483154468
tp656
a(F60.209510376173775
F-7.347577107770054
tp657
a(F60.21039117941974
F-7.347600530238031
tp658
a(F60.70089968769251
F-7.349575215911487
tp659
a(F60.79902389801911
F-7.348588493410202
tp660
a(F61.09343559057247
F-7.342618155926844
tp661
a(F61.38821402615333
F-7.335857515562044
tp662
a(F61.58481008392234
F-7.33121174429589
tp663
a(F61.781374430928125
F-7.326410886850236
tp664
a(F62.076138872050656
F-7.318944181422652
tp665
a(F62.37079376601887
F-7.311319578176212
tp666
a(F62.567246394242815
F-7.3061033811367
tp667
a(F62.76383818955575
F-7.300767154441583
tp668
a(F62.96053518920687
F-7.295329887674299
tp669
a(F63.255565817735615
F-7.286943822690974
tp670
a(F63.64903805359674
F-7.275418083669192
tp671
a(F63.64903805359674
F-7.275418083669192
tp672
a(F64.14095514864304
F-7.260417340980848
tp673
a(F64.14095514864304
F-7.260417340980848
tp674
a(F64.63290545736851
F-7.244830363618169
tp675
a(F64.73137614791865
F-7.241652471105017
tp676
a(F65.0267593305473
F-7.231857315138143
tp677
a(F65.32235493469064
F-7.221760176225265
tp678
a(F65.51936348586132
F-7.214907824881826
tp679
a(F65.71736599367189
F-7.2079399242854025
tp680
a(F66.0129035776371
F-7.197336459564767
tp681
a(F66.20988934119964
F-7.1901662174642835
tp682
a(F66.50558469402523
F-7.179135318393547
tp683
a(F66.70277219818038
F-7.171687040975633
tp684
a(F66.99861955829174
F-7.160377050920628
tp685
a(F67.19583071667738
F-7.15270672151522
tp686
a(F67.3930484842533
F-7.1449544612961455
tp687
a(F67.68900747357245
F-7.133099221978574
tp688
a(F67.98510039301037
F-7.12111296877169
tp689
a(F68.28108225481387
F-7.108914815586509
tp690
a(F68.47834183276701
F-7.100661604744809
tp691
a(F68.67570584434154
F-7.092317901132422
tp692
a(F68.8731023368678
F-7.083900968575697
tp693
a(F69.16931184243411
F-7.071034111267392
tp694
a(F69.56429446545744
F-7.053639028372633
tp695
a(F69.56429446545744
F-7.053639028372633
tp696
a(F70.05796022513317
F-7.031455713605009
tp697
a(F70.05796022513317
F-7.031455713605009
tp698
a(F70.453036555613
F-7.0133067583879445
tp699
a(F70.74955061728527
F-6.999347531012079
tp700
a(F71.0460309679895
F-6.985195386676774
tp701
a(F71.14488691752635
F-6.98043491376162
tp702
a(F71.34329624095852
F-6.970811281369629
tp703
a(F71.63972871164526
F-6.956259586474831
tp704
a(F72.03500115948809
F-6.936722796447297
tp705
a(F72.23270768464532
F-6.92682924245492
tp706
a(F72.43041827250524
F-6.916848982037555
tp707
a(F72.43041827250524
F-6.916848982037555
tp708
a(F73.02383002889935
F-6.886290724833865
tp709
a(F73.122738978173
F-6.88114218574636
tp710
a(F73.51838299304019
F-6.860359295063237
tp711
a(F73.51838299304019
F-6.860359295063237
tp712
a(F73.91397525222865
F-6.839247481561841
tp713
a(F74.11184771780265
F-6.828579966219178
tp714
a(F74.30970699322239
F-6.81784573755739
tp715
a(F74.60668283224712
F-6.801543415319546
tp716
a(F74.90365201800824
F-6.785099622953124
tp717
a(F75.20061838721296
F-6.768540427703862
tp718
a(F75.39861228313595
F-6.757426282801468
tp719
a(F75.59657979457957
F-6.746212801989632
tp720
a(F75.79463417001453
F-6.73490864226322
tp721
a(F76.09174676694751
F-6.717770292596953
tp722
a(F76.48787609483827
F-6.694730310995351
tp723
a(F76.48787609483827
F-6.694730310995351
tp724
a(F76.98264631191874
F-6.6655765530933735
tp725
a(F76.98264631191874
F-6.6655765530933735
tp726
a(F77.47861432741843
F-6.6359380949158275
tp727
a(F77.47861432741843
F-6.6359380949158275
tp728
a(F77.97409285708075
F-6.605948573598902
tp729
a(F77.97409285708075
F-6.605948573598902
tp730
a(F78.46959469532342
F-6.575580350173065
tp731
a(F78.46959469532342
F-6.575580350173065
tp732
a(F78.9650865154886
F-6.544797870649982
tp733
a(F78.9650865154886
F-6.544797870649982
tp734
a(F79.46067665250357
F-6.513585042139264
tp735
a(F79.46067665250357
F-6.513585042139264
tp736
a(F79.85695346395649
F-6.488378644501689
tp737
a(F80.15435912270314
F-6.4693364996935525
tp738
a(F80.45176888070012
F-6.450178243686549
tp739
a(F80.55088932404912
F-6.443761199580228
tp740
a(F80.94748488416948
F-6.417864638506079
tp741
a(F80.94748488416948
F-6.417864638506079
tp742
a(F81.44303965161131
F-6.3850288499529855
tp743
a(F81.44303965161131
F-6.3850288499529855
tp744
a(F81.93891963329826
F-6.351756106727836
tp745
a(F82.0381815344749
F-6.345053787992905
tp746
a(F82.335681192907
F-6.324815886091654
tp747
a(F82.53404008274813
F-6.311280234593773
tp748
a(F82.83153165395093
F-6.290915208691544
tp749
a(F83.03010758263791
F-6.2772585282905
tp750
a(F83.32845244555212
F-6.256652062259353
tp751
a(F83.62604106486292
F-6.236025464218033
tp752
a(F83.82446162035619
F-6.222237738582759
tp753
a(F84.02292330218336
F-6.208413002295661
tp754
a(F84.32061372863012
F-6.187583908532921
tp755
a(F84.61832882782407
F-6.166680316138964
tp756
a(F84.8168064585424
F-6.152695315243413
tp757
a(F85.0152764589095
F-6.13864977027803
tp758
a(F85.21371245478026
F-6.124556915375888
tp759
a(F85.51157007346043
F-6.10329187469128
tp760
a(F85.9085814156844
F-6.074830071731457
tp761
a(F85.9085814156844
F-6.074830071731457
tp762
a(F86.30556891155335
F-6.046167007098724
tp763
a(F86.40482978998848
F-6.038983916909796
tp764
a(F86.90144454631591
F-6.0043168454104405
tp765
a(F86.90144454631591
F-6.0043168454104405
tp766
a(F87.39809841860948
F-5.972947480373382
tp767
a(F87.39809841860948
F-5.972947480373382
tp768
a(F87.8946907780042
F-5.941700261838973
tp769
a(F87.8946907780042
F-5.941700261838973
tp770
a(F88.391389004029
F-5.910329478684696
tp771
a(F88.391389004029
F-5.910329478684696
tp772
a(F88.78899090326018
F-5.885030698202846
tp773
a(F88.98774194281512
F-5.872296279924056
tp774
a(F89.18738090313498
F-5.859462457062422
tp775
a(F89.48559495422164
F-5.840300185745085
tp776
a(F89.88329958167945
F-5.815818449422936
tp777
a(F89.88329958167945
F-5.815818449422936
tp778
a(F90.27773620568026
F-5.795555129479528
tp779
a(F90.37628754970429
F-5.790840383008078
tp780
a(F90.7704228823408
F-5.7728904972603425
tp781
a(F90.86890759033186
F-5.768491358469837
tp782
a(F91.36161855518294
F-5.747535309872671
tp783
a(F91.36161855518294
F-5.747535309872671
tp784
a(F91.85460482824519
F-5.727663025134232
tp785
a(F92.15056148227028
F-5.716282142414105
tp786
a(F92.24923167830443
F-5.71252963533919
tp787
a(F92.34790243984463
F-5.7088213461111055
tp788
a(F92.74272467188801
F-5.694544041661169
tp789
a(F92.84136687674913
F-5.6910381254612235
tp790
a(F93.33464637353502
F-5.674284513358664
tp791
a(F93.33464637353502
F-5.674284513358664
tp792
a(F93.82849040818384
F-5.659213537480576
tp793
a(F93.82849040818384
F-5.659213537480576
tp794
a(F94.3222782306008
F-5.649742533617546
tp795
a(F94.3222782306008
F-5.649742533617546
tp796
a(F94.7167974071416
F-5.648543366209358
tp797
a(F94.81544640807034
F-5.648821630062732
tp798
a(F95.30896657117844
F-5.652739192149576
tp799
a(F95.30969416838876
F-5.652745536419398
tp800
a(F95.80344792761498
F-5.658036951344481
tp801
a(F95.80344792761498
F-5.658036951344481
tp802
a(F96.29717979405649
F-5.66453253154281
tp803
a(F96.29717979405649
F-5.66453253154281
tp804
a(F96.79121248213015
F-5.672278492200431
tp805
a(F96.79121248213015
F-5.672278492200431
tp806
a(F97.28570808897152
F-5.681376704102825
tp807
a(F97.28570808897152
F-5.681376704102825
tp808
a(F97.6811391609617
F-5.689468299388104
tp809
a(F97.87897541385897
F-5.693801794579019
tp810
a(F98.17569690514675
F-5.700742207407388
tp811
a(F98.47239864592932
F-5.7080459919844255
tp812
a(F98.67024792888479
F-5.71309731900632
tp813
a(F98.86796435880407
F-5.718380237342391
tp814
a(F99.16478629006997
F-5.726756049687651
tp815
a(F99.46153269972086
F-5.735475895013212
tp816
a(F99.56046006335399
F-5.738460816817737
tp817
a(F99.85722359236217
F-5.747730620311238
tp818
a(F100.15419805041786
F-5.757492056873947
tp819
a(F100.45125550714215
F-5.767533145883275
tp820
a(F100.64927288187707
F-5.7744360107072215
tp821
a(F100.84722787191
F-5.781557870617184
tp822
a(F101.04521490709246
F-5.788820435645289
tp823
a(F101.34326235524004
F-5.80018733209301
tp824
a(F101.6404267158719
F-5.811814427804159
tp825
a(F101.73947944331245
F-5.815763545337245
tp826
a(F102.13559636340436
F-5.832053765051695
tp827
a(F102.33371415421067
F-5.840449392487874
tp828
a(F102.63098315036271
F-5.853395573967696
tp829
a(F102.92829721690022
F-5.86658658992162
tp830
a(F103.12647290523918
F-5.875553572191863
tp831
a(F103.32464508402477
F-5.884731627348334
tp832
a(F103.52285052379999
F-5.8940799541890465
tp833
a(F103.8201769322637
F-5.908462070910968
tp834
a(F104.21656358070852
F-5.928082570228814
tp835
a(F104.21656358070852
F-5.928082570228814
tp836
a(F104.61284867325993
F-5.948364623401783
tp837
a(F104.81108828506237
F-5.958753867142562
tp838
a(F104.81108828506237
F-5.958753867142562
tp839
a(F105.40574367232328
F-5.990820906249931
tp840
a(F105.50487617708839
F-5.996275115697936
tp841
a(F105.80227348046358
F-6.012875786158575
tp842
a(F106.09973550420327
F-6.029892964471401
tp843
a(F106.3970736434342
F-6.047160977046213
tp844
a(F106.59537842892743
F-6.0588349040728104
tp845
a(F106.79358194913793
F-6.07068526582949
tp846
a(F106.99266468746481
F-6.082703656369369
tp847
a(F107.29004434611906
F-6.101004872767588
tp848
a(F107.5559598272421
F-6.117587969021357
tp849
a(F107.63953831791771
F-6.12284644160497
tp850
a(F107.95120156690653
F-6.142813396284907
tp851
a(F107.95120156690653
F-6.142813396284907
tp852
a(F108.11879232865027
F-6.153664971852115
tp853
a(F108.11879232865027
F-6.153664971852115
tp854
a(F108.1191752330839
F-6.1536900101246745
tp855
a(F108.1191752330839
F-6.1536900101246745
tp856
a(F108.1191752330839
F-6.1536900101246745
tp857
a(F108.1191752330839
F-6.1536900101246745
tp858
a(F108.1191752330839
F-6.1536900101246745
tp859
a(F108.1191752330839
F-6.1536900101246745
tp860
a(F108.1191752330839
F-6.1536900101246745
tp861
a(F108.1191752330839
F-6.1536900101246745
tp862
a(F108.1191752330839
F-6.1536900101246745
tp863
a(F108.1191752330839
F-6.1536900101246745
tp864
a(F108.1191752330839
F-6.1536900101246745
tp865
a(F108.1191752330839
F-6.1536900101246745
tp866
a(F108.1191752330839
F-6.1536900101246745
tp867
a(F108.1191752330839
F-6.1536900101246745
tp868
a(F108.1191752330839
F-6.1536900101246745
tp869
a(F108.1191752330839
F-6.1536900101246745
tp870
a(F108.1191752330839
F-6.1536900101246745
tp871
a(F108.1191752330839
F-6.1536900101246745
tp872
a(F108.1191752330839
F-6.1536900101246745
tp873
a(F108.1191752330839
F-6.1536900101246745
tp874
a(F108.1191752330839
F-6.1536900101246745
tp875
a(F108.1191752330839
F-6.1536900101246745
tp876
a(F108.1191752330839
F-6.1536900101246745
tp877
a(F108.1191752330839
F-6.1536900101246745
tp878
a(F108.1191752330839
F-6.1536900101246745
tp879
a(F108.1191752330839
F-6.1536900101246745
tp880
a(F108.1191752330839
F-6.1536900101246745
tp881
a(F108.1191752330839
F-6.1536900101246745
tp882
a(F108.1191752330839
F-6.1536900101246745
tp883
a(F108.1191752330839
F-6.1536900101246745
tp884
a(F108.1191752330839
F-6.1536900101246745
tp885
a(F108.1191752330839
F-6.1536900101246745
tp886
a(F108.1191752330839
F-6.1536900101246745
tp887
a(F108.1191752330839
F-6.1536900101246745
tp888
a(F108.1191752330839
F-6.1536900101246745
tp889
a(F108.1191752330839
F-6.1536900101246745
tp890
a.