(lp0
(F28.118037705623294
F-15.125143103227975
tp1
a(F28.118037705623294
F-15.125143103227975
tp2
a(F28.118037705623294
F-15.125143103227975
tp3
a(F28.118037705623294
F-15.125143103227975
tp4
a(F28.118037705623294
F-15.125143103227975
tp5
a(F28.118037705623294
F-15.125143103227975
tp6
a(F28.118037705623294
F-15.125143103227975
tp7
a(F28.118037705623294
F-15.125143103227975
tp8
a(F28.118037705623294
F-15.125143103227975
tp9
a(F28.118037705623294
F-15.125143103227975
tp10
a(F28.118037705623294
F-15.125143103227975
tp11
a(F28.118037705623294
F-15.125143103227975
tp12
a(F28.118037705623294
F-15.125143103227975
tp13
a(F28.118037705623294
F-15.125143103227975
tp14
a(F28.118037705623294
F-15.125143103227975
tp15
a(F28.118037705623294
F-15.125143103227975
tp16
a(F28.118037705623294
F-15.125143103227975
tp17
a(F28.118037705623294
F-15.125143103227975
tp18
a(F28.118037705623294
F-15.125143103227975
tp19
a(F28.118037705623294
F-15.125143103227975
tp20
a(F28.118037705623294
F-15.125143103227975
tp21
a(F28.118037705623294
F-15.125143103227975
tp22
a(F28.118037705623294
F-15.125143103227975
tp23
a(F28.118037705623294
F-15.125143103227975
tp24
a(F28.118037705623294
F-15.125143103227975
tp25
a(F28.118037705623294
F-15.125143103227975
tp26
a(F28.118037705623294
F-15.125143103227975
tp27
a(F28.118037705623294
F-15.125143103227975
tp28
a(F28.118037705623294
F-15.125143103227975
tp29
a(F28.118037705623294
F-15.125143103227975
tp30
a(F28.118037705623294
F-15.125143103227975
tp31
a(F28.118037705623294
F-15.125143103227975
tp32
a(F28.118037705623294
F-15.125143103227975
tp33
a(F28.118037705623294
F-15.125143103227975
tp34
a(F28.118037705623294
F-15.125143103227975
tp35
a(F28.118037705623294
F-15.125143103227975
tp36
a(F28.12251661447538
F-15.14283365689959
tp37
a(F28.126679874092247
F-15.159308279334454
tp38
a(F28.13817530653929
F-15.204907174527131
tp39
a(F28.152944510277486
F-15.263583193866552
tp40
a(F28.164832291940964
F-15.310895211255252
tp41
a(F28.179084637064022
F-15.367724114322995
tp42
a(F28.195015134243857
F-15.431548434930344
tp43
a(F28.223008139502237
F-15.545599877237773
tp44
a(F28.2642516158168
F-15.717738457790244
tp45
a(F28.2642516158168
F-15.717738457790244
tp46
a(F28.322561997892535
F-15.98140459909525
tp47
a(F28.334717525500682
F-16.03926547410634
tp48
a(F28.37205068990014
F-16.232304574558583
tp49
a(F28.396745640541507
F-16.36902616146679
tp50
a(F28.43300839893765
F-16.585417507307188
tp51
a(F28.455386421510973
F-16.74219654313572
tp52
a(F28.47650664015763
F-16.90608094971107
tp53
a(F28.495051319402428
F-17.076615649314885
tp54
a(F28.533269103241793
F-17.54283480243778
tp55
a(F28.540055116677767
F-17.63866801168047
tp56
a(F28.55905861324184
F-17.930232410963086
tp57
a(F28.57775973446855
F-18.222339054193895
tp58
a(F28.590061493032998
F-18.41770836890619
tp59
a(F28.60188001760464
F-18.61361611836676
tp60
a(F28.612977911590853
F-18.809719777064473
tp61
a(F28.62740241593147
F-19.10413316108958
tp62
a(F28.63935648219986
F-19.398581787184355
tp63
a(F28.642703543032287
F-19.496773362544456
tp64
a(F28.648974504702718
F-19.988190507114147
tp65
a(F28.648974504702718
F-19.988190507114147
tp66
a(F28.64190916450309
F-20.38176553967547
tp67
a(F28.638753599209906
F-20.48023502629096
tp68
a(F28.616063886007623
F-20.873238028344574
tp69
a(F28.608872258771097
F-20.971396994040223
tp70
a(F28.551420685313715
F-21.460602546396746
tp71
a(F28.53747057151255
F-21.558185897576106
tp72
a(F28.4847629850288
F-21.849292389361594
tp73
a(F28.444486514464515
F-22.042385774294974
tp74
a(F28.375975878314318
F-22.330087968760406
tp75
a(F28.32234795349974
F-22.519971469101606
tp76
a(F28.262318658118854
F-22.707277546592998
tp77
a(F28.160372648125488
F-22.983962469802883
tp78
a(F28.050750906419758
F-23.25856673933382
tp79
a(F28.012782745839687
F-23.34938976541646
tp80
a(F27.851983159337667
F-23.710483157161917
tp81
a(F27.811033401511025
F-23.800470003682644
tp82
a(F27.60282153524063
F-24.249540937023593
tp83
a(F27.60282153524063
F-24.249540937023593
tp84
a(F27.434538296574736
F-24.608567188044322
tp85
a(F27.392304705617523
F-24.69822913320347
tp86
a(F27.177253407902523
F-25.14467138643026
tp87
a(F27.177253407902523
F-25.14467138643026
tp88
a(F26.95386065065575
F-25.58721493664019
tp89
a(F26.95386065065575
F-25.58721493664019
tp90
a(F26.767725542422614
F-25.937159057909547
tp91
a(F26.720892522637314
F-26.024455956754355
tp92
a(F26.48465774443504
F-26.460160844048826
tp93
a(F26.48465774443504
F-26.460160844048826
tp94
a(F26.294126444314127
F-26.808080887151235
tp95
a(F26.246419615198608
F-26.895052374324738
tp96
a(F26.05637817433134
F-27.242923562878136
tp97
a(F26.00904332632365
F-27.330079623387107
tp98
a(F25.824709389033824
F-27.67604163227709
tp99
a(F25.779235091506926
F-27.762767103835337
tp100
a(F25.602999357585933
F-28.11212983216423
tp101
a(F25.51632412576294
F-28.2874356953347
tp102
a(F25.38686268240729
F-28.551399781734588
tp103
a(F25.257816015650302
F-28.814683940839007
tp104
a(F25.171776038851203
F-28.990255951964894
tp105
a(F25.08577317497225
F-29.165768822714394
tp106
a(F24.95671693751379
F-29.42909670909292
tp107
a(F24.827734595043847
F-29.692610394801818
tp108
a(F24.742216328143336
F-29.868391830413266
tp109
a(F24.657487808232773
F-30.044553290604174
tp110
a(F24.53271115411355
F-30.309707250692682
tp111
a(F24.409769707856764
F-30.57568184558732
tp112
a(F24.32787787976194
F-30.753074488229032
tp113
a(F24.246026538020402
F-30.930508753684844
tp114
a(F24.164134082631914
F-31.108056301510807
tp115
a(F24.04130456103529
F-31.374352989123437
tp116
a(F23.877477188183367
F-31.729512404131082
tp117
a(F23.877477188183367
F-31.729512404131082
tp118
a(F23.714499475558203
F-32.08523420714057
tp119
a(F23.67399960774674
F-32.17428012054684
tp120
a(F23.51494676936253
F-32.531889157233685
tp121
a(F23.47567540135665
F-32.62142179527268
tp122
a(F23.281664543647707
F-33.069484048006196
tp123
a(F23.281664543647707
F-33.069484048006196
tp124
a(F23.087589368124682
F-33.51776928203229
tp125
a(F23.04876353571439
F-33.60743096122464
tp126
a(F23.048437522964807
F-33.60818383241248
tp127
a(F22.815351980572864
F-34.146699883394135
tp128
a(F22.73808504922277
F-34.32641318949142
tp129
a(F22.661652103153187
F-34.50657536797585
tp130
a(F22.585669672338252
F-34.68683994101439
tp131
a(F22.471953409679976
F-34.95743176247278
tp132
a(F22.320228562430607
F-35.3184211356997
tp133
a(F22.320228562430607
F-35.3184211356997
tp134
a(F22.13030307986015
F-35.7700174779109
tp135
a(F22.09230296376837
F-35.86036790834104
tp136
a(F21.97837146653041
F-36.131553600358664
tp137
a(F21.865087121192875
F-36.40297710515797
tp138
a(F21.790226133171192
F-36.583990680629555
tp139
a(F21.716389768797217
F-36.76567947713665
tp140
a(F21.572795693196184
F-37.13021896773031
tp141
a(F21.572795693196184
F-37.13021896773031
tp142
a(F21.43650754655198
F-37.497732072500696
tp143
a(F21.403359896694944
F-37.58994600154917
tp144
a(F21.27797073337037
F-37.961064371893436
tp145
a(F21.247716852970306
F-38.0542843490539
tp146
a(F21.101301072520844
F-38.52209201456103
tp147
a(F21.101301072520844
F-38.52209201456103
tp148
a(F20.98463071239915
F-38.89767673953167
tp149
a(F20.955546760161006
F-38.9914112142665
tp150
a(F20.839357000683965
F-39.36676919643439
tp151
a(F20.78139988961272
F-39.5545304950114
tp152
a(F20.723496305668107
F-39.74235954439363
tp153
a(F20.636823355788323
F-40.02421162117355
tp154
a(F20.550302387456906
F-40.306035856289576
tp155
a(F20.52149290839805
F-40.39999225969251
tp156
a(F20.40648777281182
F-40.77613844485472
tp157
a(F20.320408116412015
F-41.05844079838506
tp158
a(F20.263152891264728
F-41.24666993328793
tp159
a(F20.205984161809113
F-41.4349526724396
tp160
a(F20.120403822859636
F-41.71748521537628
tp161
a(F20.03495061732153
F-42.00013808972217
tp162
a(F19.978066165409953
F-42.18860498067651
tp163
a(F19.921260924133183
F-42.37712612878287
tp164
a(F19.807786141755948
F-42.75432467788402
tp165
a(F19.807786141755948
F-42.75432467788402
tp166
a(F19.666171992614988
F-43.22643124751036
tp167
a(F19.63789537112752
F-43.3208436265983
tp168
a(F19.58145889238007
F-43.509532516494964
tp169
a(F19.525034721629922
F-43.69843939085375
tp170
a(F19.384012361169052
F-44.17170560723218
tp171
a(F19.384012361169052
F-44.17170560723218
tp172
a(F19.243646060370793
F-44.64451970408251
tp173
a(F19.243646060370793
F-44.64451970408251
tp174
a(F19.103698446418857
F-45.11755327674515
tp175
a(F19.047815370049364
F-45.30682250414877
tp176
a(F18.992010129117592
F-45.49610504767606
tp177
a(F18.936272997848096
F-45.685425933047256
tp178
a(F18.880563022490083
F-45.874869782422316
tp179
a(F18.797132689630967
F-46.15909774855379
tp180
a(F18.686085486629366
F-46.5381652127451
tp181
a(F18.686085486629366
F-46.5381652127451
tp182
a(F18.550889942309468
F-47.01156569876421
tp183
a(F18.550889942309468
F-47.01156569876421
tp184
a(F18.423274268618812
F-47.48695638789202
tp185
a(F18.423274268618812
F-47.48695638789202
tp186
a(F18.29840125704907
F-47.96299688816445
tp187
a(F18.29840125704907
F-47.96299688816445
tp188
a(F18.19910325009271
F-48.34424399523336
tp189
a(F18.17429987784168
F-48.43967483670659
tp190
a(F18.07556987146647
F-48.82142172485837
tp191
a(F18.050968936054744
F-48.91687164044679
tp192
a(F17.92866187995912
F-49.39433733322795
tp193
a(F17.92866187995912
F-49.39433733322795
tp194
a(F17.831336560090985
F-49.77713245422557
tp195
a(F17.807108112519906
F-49.8726908808889
tp196
a(F17.710673015624643
F-50.25494077123394
tp197
a(F17.686608282766073
F-50.35053048300049
tp198
a(F17.59085133498363
F-50.733198539176094
tp199
a(F17.566978625474214
F-50.828884906968604
tp200
a(F17.448234536935818
F-51.307623363189364
tp201
a(F17.448234536935818
F-51.307623363189364
tp202
a(F17.330227530778053
F-51.7867474134648
tp203
a(F17.330227530778053
F-51.7867474134648
tp204
a(F17.236013390752678
F-52.17033393231042
tp205
a(F17.16506481780396
F-52.45804444628826
tp206
a(F17.11789118630516
F-52.64988297534011
tp207
a(F17.07085839862317
F-52.84174131549089
tp208
a(F17.02393513248124
F-53.03367774693087
tp209
a(F16.953983577486994
F-53.32158165726814
tp210
a(F16.86106023206011
F-53.70580284128156
tp211
a(F16.86106023206011
F-53.70580284128156
tp212
a(F16.745561065425967
F-54.18624080446288
tp213
a(F16.745561065425967
F-54.18624080446288
tp214
a(F16.630662606678726
F-54.66693535866913
tp215
a(F16.630662606678726
F-54.66693535866913
tp216
a(F16.5164824620553
F-55.14877802003827
tp217
a(F16.5164824620553
F-55.14877802003827
tp218
a(F16.403235663764402
F-55.63026468833557
tp219
a(F16.358127670154932
F-55.8229444560944
tp220
a(F16.313096083921277
F-56.015701965976085
tp221
a(F16.268125252239155
F-56.20859530938913
tp222
a(F16.223259325906007
F-56.40145219158338
tp223
a(F16.156193486272777
F-56.690807900090405
tp224
a(F16.067150078873173
F-57.07659292614232
tp225
a(F16.067150078873173
F-57.07659292614232
tp226
a(F15.957982216552995
F-57.55949656567943
tp227
a(F15.936724228081653
F-57.65590853935901
tp228
a(F15.875733215305376
F-57.94556753404987
tp229
a(F15.817567792520387
F-58.235932006351646
tp230
a(F15.780792806874038
F-58.42990291347656
tp231
a(F15.746719792200308
F-58.62422205872573
tp232
a(F15.714920907446599
F-58.81909188343121
tp233
a(F15.673725548332296
F-59.112201326795514
tp234
a(F15.624078505443297
F-59.503747078301004
tp235
a(F15.624078505443297
F-59.503747078301004
tp236
a(F15.564901489462768
F-59.993844824095284
tp237
a(F15.564901489462768
F-59.993844824095284
tp238
a(F15.506949510113865
F-60.485391227966105
tp239
a(F15.506949510113865
F-60.485391227966105
tp240
a(F15.473071694364984
F-60.779688032177155
tp241
a(F15.450651412665646
F-60.97587393477508
tp242
a(F15.395743779536488
F-61.46639274936063
tp243
a(F15.395743779536488
F-61.46639274936063
tp244
a(F15.342165053782002
F-61.95774832349758
tp245
a(F15.342165053782002
F-61.95774832349758
tp246
a(F15.300254897746818
F-62.35105230247274
tp247
a(F15.279550180470448
F-62.54760656503402
tp248
a(F15.249013602847183
F-62.842555403086415
tp249
a(F15.218920808848988
F-63.137822922417016
tp250
a(F15.199010823429127
F-63.33465870838868
tp251
a(F15.179232494887017
F-63.53165010275638
tp252
a(F15.159286928070145
F-63.728570026206846
tp253
a(F15.128326041934983
F-64.02387786867955
tp254
a(F15.096039294400342
F-64.3162004076345
tp255
a(F15.084772915021835
F-64.41360665881793
tp256
a(F15.049916377591554
F-64.70484358926672
tp257
a(F15.026648183245914
F-64.89889698562348
tp258
a(F14.968482340106494
F-65.38366432368258
tp259
a(F14.945243725265954
F-65.57760553484903
tp260
a(F14.92193602694264
F-65.77230235039353
tp261
a(F14.898721752918583
F-65.96639015025994
tp262
a(F14.863929789915536
F-66.25768055647767
tp263
a(F14.829157331301536
F-66.5490128205767
tp264
a(F14.805998646394558
F-66.74318307573844
tp265
a(F14.782843732674138
F-66.9374617612844
tp266
a(F14.759703725898321
F-67.13165872950914
tp267
a(F14.736567919122534
F-67.32592440790137
tp268
a(F14.67861422165452
F-67.81195031783146
tp269
a(F14.67861422165452
F-67.81195031783146
tp270
a(F14.620549993728332
F-68.29829573463981
tp271
a(F14.620549993728332
F-68.29829573463981
tp272
a(F14.562421159456397
F-68.7849064867848
tp273
a(F14.562421159456397
F-68.7849064867848
tp274
a(F14.5042651184754
F-69.27163937459014
tp275
a(F14.5042651184754
F-69.27163937459014
tp276
a(F14.446163455608035
F-69.7586081416042
tp277
a(F14.446163455608035
F-69.7586081416042
tp278
a(F14.388089283185971
F-70.24566565904333
tp279
a(F14.388089283185971
F-70.24566565904333
tp280
a(F14.329886747993255
F-70.73320453757655
tp281
a(F14.329886747993255
F-70.73320453757655
tp282
a(F14.27169505353463
F-71.2216549965164
tp283
a(F14.27169505353463
F-71.2216549965164
tp284
a(F14.21371954743685
F-71.70950968320888
tp285
a(F14.21371954743685
F-71.70950968320888
tp286
a(F14.167313914917402
F-72.10013454552663
tp287
a(F14.144089798737614
F-72.29551983186433
tp288
a(F14.120839210815614
F-72.49099673557681
tp289
a(F14.085938107414885
F-72.7842417866044
tp290
a(F14.039434586448504
F-73.17515410061581
tp291
a(F14.039434586448504
F-73.17515410061581
tp292
a(F13.981423199154946
F-73.6639139578619
tp293
a(F13.981423199154946
F-73.6639139578619
tp294
a(F13.923402691736264
F-74.15293376117481
tp295
a(F13.90013675391243
F-74.34862608897937
tp296
a(F13.876829892735687
F-74.54439483051934
tp297
a(F13.853509876891172
F-74.7400993511331
tp298
a(F13.818496247642026
F-75.03383322253454
tp299
a(F13.783518256534254
F-75.32743218223568
tp300
a(F13.760206060671237
F-75.52325048689383
tp301
a(F13.736912944243285
F-75.71911701903376
tp302
a(F13.713632706371756
F-75.9150444767597
tp303
a(F13.678718924147107
F-76.20891302202239
tp304
a(F13.631961342106553
F-76.60149303653661
tp305
a(F13.631961342106553
F-76.60149303653661
tp306
a(F13.570946545416446
F-77.09037159552763
tp307
a(F13.570946545416446
F-77.09037159552763
tp308
a(F13.501986363868381
F-77.57700775218231
tp309
a(F13.487430066835714
F-77.67415522103344
tp310
a(F13.442568159119489
F-77.96524763866731
tp311
a(F13.442568159119489
F-77.96524763866731
tp312
a(F13.351793838439743
F-78.54772907576262
tp313
a(F13.351793838439743
F-78.54772907576262
tp314
a(F13.275349256250088
F-79.03332782323224
tp315
a(F13.275349256250088
F-79.03332782323224
tp316
a(F13.198063316824861
F-79.51887498119929
tp317
a(F13.166936696514584
F-79.7130623056356
tp318
a(F13.135662716882608
F-79.90741183727316
tp319
a(F13.104276978757497
F-80.10167815120205
tp320
a(F13.056957181607833
F-80.39312799359799
tp321
a(F13.009381634860219
F-80.68464881853474
tp322
a(F12.977551530292661
F-80.878922953729
tp323
a(F12.945580507612545
F-81.07314734925906
tp324
a(F12.913495778213786
F-81.26736459908804
tp325
a(F12.86505577488424
F-81.55889239127961
tp326
a(F12.816391956689433
F-81.85045390536082
tp327
a(F12.799980262602205
F-81.94848877835439
tp328
a(F12.734476622308584
F-82.33757855020193
tp329
a(F12.718067988343613
F-82.43481845936728
tp330
a(F12.652032589684353
F-82.82364908972286
tp331
a(F12.635477501200596
F-82.92086851033005
tp332
a(F12.552102224078673
F-83.40727887075006
tp333
a(F12.552102224078673
F-83.40727887075006
tp334
a(F12.468144967097619
F-83.89374874007927
tp335
a(F12.451280385600667
F-83.9910332311775
tp336
a(F12.400416163526252
F-84.28294697136866
tp337
a(F12.34936338657792
F-84.57476023985417
tp338
a(F12.315220611540608
F-84.76928209118056
tp339
a(F12.280960387152007
F-84.96383006970747
tp340
a(F12.229334004837497
F-85.25578009222191
tp341
a(F12.177572596127282
F-85.54780090319973
tp342
a(F12.160278269375816
F-85.64512436515288
tp343
a(F12.108171513761512
F-85.93682957991388
tp344
a(F12.072901059579129
F-86.13134492185218
tp345
a(F12.018356146948188
F-86.42221611716074
tp346
a(F11.961722540563109
F-86.71274578779169
tp347
a(F11.942232412650007
F-86.80946606885159
tp348
a(F11.83618763906177
F-87.29033449502069
tp349
a(F11.83601300873147
F-87.2911021388145
tp350
a(F11.71479154924336
F-87.76875367183086
tp351
a(F11.71479154924336
F-87.76875367183086
tp352
a(F11.608356396993143
F-88.14839199536067
tp353
a(F11.58128609678777
F-88.24319067680962
tp354
a(F11.471984166246784
F-88.62179206549159
tp355
a(F11.389409308365476
F-88.90593210385262
tp356
a(F11.334081778775964
F-89.09536995260532
tp357
a(F11.334081778775964
F-89.09536995260532
tp358
a(F11.166703620402904
F-89.66357994297871
tp359
a(F11.13869491758655
F-89.75821562685658
tp360
a(F11.026109481806428
F-90.13660314911712
tp361
a(F11.026109481806428
F-90.13660314911712
tp362
a(F10.884183651708078
F-90.60949293911155
tp363
a(F10.884183651708078
F-90.60949293911155
tp364
a(F10.741036528573627
F-91.08216666180357
tp365
a(F10.712291505112706
F-91.17668777945813
tp366
a(F10.625645637518009
F-91.46016679162688
tp367
a(F10.538673408309712
F-91.74352139621871
tp368
a(F10.480513068330609
F-91.93235191548632
tp369
a(F10.422153712851202
F-92.12122289863699
tp370
a(F10.333819459395638
F-92.40382883294933
tp371
a(F10.30409583880684
F-92.4979478314685
tp372
a(F10.180655086032731
F-92.87389547713494
tp373
a(F10.149242666308261
F-92.96748085216382
tp374
a(F9.989106285108507
F-93.43507942145912
tp375
a(F9.989106285108507
F-93.43507942145912
tp376
a(F9.82753028804212
F-93.90221522797121
tp377
a(F9.82753028804212
F-93.90221522797121
tp378
a(F9.697255022563398
F-94.27569261183574
tp379
a(F9.664604789487138
F-94.36905923018973
tp380
a(F9.533248798819658
F-94.74223094730789
tp381
a(F9.50031455003405
F-94.83550215899157
tp382
a(F9.334599337616767
F-95.30154721574003
tp383
a(F9.334599337616767
F-95.30154721574003
tp384
a(F9.168075523454851
F-95.76752205228665
tp385
a(F9.168075523454851
F-95.76752205228665
tp386
a(F9.005147194847073
F-96.23291847859414
tp387
a(F9.005147194847073
F-96.23291847859414
tp388
a(F8.85019844245994
F-96.69821609619335
tp389
a(F8.85019844245994
F-96.69821609619335
tp390
a(F8.734833397020726
F-97.07268386745568
tp391
a(F8.68061349156179
F-97.26095702602223
tp392
a(F8.60205793041266
F-97.54426769764548
tp393
a(F8.550092087574203
F-97.73324862306443
tp394
a(F8.472251282901835
F-98.01681058469568
tp395
a(F8.42020132818347
F-98.20676007038243
tp396
a(F8.368362751923012
F-98.39614261731744
tp397
a(F8.290751083885198
F-98.68022919646671
tp398
a(F8.213258593743431
F-98.96437305790182
tp399
a(F8.187453881908391
F-99.0591038356635
tp400
a(F8.05886832766317
F-99.53254832622855
tp401
a(F8.05886832766317
F-99.53254832622855
tp402
a(F7.9304236241421115
F-100.00681330786917
tp403
a(F7.9304236241421115
F-100.00681330786917
tp404
a(F7.802259894143763
F-100.48124099888004
tp405
a(F7.802259894143763
F-100.48124099888004
tp406
a(F7.674517039555024
F-100.95567537548548
tp407
a(F7.674517039555024
F-100.95567537548548
tp408
a(F7.546954385225869
F-101.4306834557903
tp409
a(F7.546954385225869
F-101.4306834557903
tp410
a(F7.4199050903859565
F-101.905945452218
tp411
a(F7.4199050903859565
F-101.905945452218
tp412
a(F7.293174113844494
F-102.3813317104992
tp413
a(F7.293174113844494
F-102.3813317104992
tp414
a(F7.191972713050482
F-102.76158965663029
tp415
a(F7.166656067652709
F-102.85678521957983
tp416
a(F7.065531634960317
F-103.23769428168653
tp417
a(F7.015036173485119
F-103.42818885936532
tp418
a(F6.939218036669767
F-103.71476970614961
tp419
a(F6.888870076588317
F-103.90524014134675
tp420
a(F6.813096635616986
F-104.19127003081977
tp421
a(F6.76194261404947
F-104.3820299425032
tp422
a(F6.683682670518538
F-104.66647020170257
tp423
a(F6.6033867866959906
F-104.94995355128869
tp424
a(F6.549152519240915
F-105.13800834300223
tp425
a(F6.494744389712584
F-105.3259871511138
tp426
a(F6.440300356036256
F-105.5139966538452
tp427
a(F6.3586665762327605
F-105.79588381353979
tp428
a(F6.249779096107798
F-106.17184536958487
tp429
a(F6.249779096107798
F-106.17184536958487
tp430
a(F6.113628345217494
F-106.64203382675845
tp431
a(F6.113628345217494
F-106.64203382675845
tp432
a(F5.977269273282747
F-107.11253247248291
tp433
a(F5.977269273282747
F-107.11253247248291
tp434
a(F5.866315560167063
F-107.48827191604232
tp435
a(F5.809877050352501
F-107.67592286957006
tp436
a(F5.72182588827798
F-107.95627400421012
tp437
a(F5.629901695877135
F-108.23564148760431
tp438
a(F5.5671727455884845
F-108.42128293050459
tp439
a(F5.501640002962827
F-108.60607690198523
tp440
a(F5.397509174756737
F-108.88139977127877
tp441
a(F5.287185909372895
F-109.15398509061976
tp442
a(F5.211677081953633
F-109.33562468794703
tp443
a(F5.134393879056102
F-109.51585111415771
tp444
a(F5.056281482110295
F-109.69587804275987
tp445
a(F4.938590065310323
F-109.96593256541514
tp446
a(F4.820747414660328
F-110.2359678160369
tp447
a(F4.781424785040501
F-110.32599993530235
tp448
a(F4.623897935136767
F-110.6861202276124
tp449
a(F4.545000047382183
F-110.8661791539909
tp450
a(F4.4265095731360615
F-111.13611352303197
tp451
a(F4.30773776269158
F-111.40618035218701
tp452
a(F4.228551630410532
F-111.58608607490885
tp453
a(F4.149205928875141
F-111.76607740419651
tp454
a(F4.030001359516044
F-112.03602176248557
tp455
a(F3.9107436357966283
F-112.30622775354041
tp456
a(F3.8315220543705863
F-112.48660679929823
tp457
a(F3.8315220543705863
F-112.48660679929823
tp458
a(F3.600312230163784
F-113.02758255957181
tp459
a(F3.5627173601039783
F-113.11814742367808
tp460
a(F3.4166521456674523
F-113.48211932102363
tp461
a(F3.4166521456674523
F-113.48211932102363
tp462
a(F3.248190302125391
F-113.94262756422646
tp463
a(F3.248190302125391
F-113.94262756422646
tp464
a(F3.0940288018373985
F-114.40914481381984
tp465
a(F3.0940288018373985
F-114.40914481381984
tp466
a(F2.9460818593286495
F-114.87730746743077
tp467
a(F2.9460818593286495
F-114.87730746743077
tp468
a(F2.798958363605864
F-115.34577844718838
tp469
a(F2.798958363605864
F-115.34577844718838
tp470
a(F2.6833807283143987
F-115.72187490010523
tp471
a(F2.654886681329691
F-115.8160366249461
tp472
a(F2.518388680476391
F-116.28862298818363
tp473
a(F2.518388680476391
F-116.28862298818363
tp474
a(F2.3935662017102635
F-116.76404721119272
tp475
a(F2.3935662017102635
F-116.76404721119272
tp476
a(F2.283938456446253
F-117.24320354913804
tp477
a(F2.283938456446253
F-117.24320354913804
tp478
a(F2.183942714909513
F-117.72213810908455
tp479
a(F2.183942714909513
F-117.72213810908455
tp480
a(F2.0846094529535213
F-118.20152993167281
tp481
a(F2.0846094529535213
F-118.20152993167281
tp482
a(F1.9877679483046644
F-118.68140896868347
tp483
a(F1.9877679483046644
F-118.68140896868347
tp484
a(F1.9156778903697946
F-119.06633677447927
tp485
a(F1.8652385692371827
F-119.35585486928981
tp486
a(F1.834253745557166
F-119.5501138993596
tp487
a(F1.805718473961293
F-119.7440615303218
tp488
a(F1.7689279159525806
F-120.0358996183551
tp489
a(F1.7374592844661865
F-120.32841187656207
tp490
a(F1.719775696246756
F-120.52380437727408
tp491
a(F1.70700361256286
F-120.71964585057228
tp492
a(F1.6982093604928519
F-120.91580938790831
tp493
a(F1.6947437823396463
F-121.21046767073042
tp494
a(F1.7031632190486836
F-121.60315487008421
tp495
a(F1.7031632190486836
F-121.60315487008421
tp496
a(F1.7337331163800618
F-121.99432836384315
tp497
a(F1.757086393157751
F-122.18858835437561
tp498
a(F1.7850494571749964
F-122.38236657299856
tp499
a(F1.8352950929047391
F-122.67254013534284
tp500
a(F1.9088298924539728
F-123.05896924320454
tp501
a(F1.9088298924539728
F-123.05896924320454
tp502
a(F2.0077993648887866
F-123.54167127217622
tp503
a(F2.0077993648887866
F-123.54167127217622
tp504
a(F2.1083127527311345
F-124.02453896558337
tp505
a(F2.1083127527311345
F-124.02453896558337
tp506
a(F2.212194889498619
F-124.50650180040518
tp507
a(F2.212194889498619
F-124.50650180040518
tp508
a(F2.3244447031690716
F-124.98710349450378
tp509
a(F2.3482703256245765
F-125.08379822620897
tp510
a(F2.424063302330547
F-125.37035867926082
tp511
a(F2.503813528419353
F-125.65634680799077
tp512
a(F2.5601123800216428
F-125.84558025384985
tp513
a(F2.620025151990127
F-126.0331430837499
tp514
a(F2.749750011478197
F-126.40488722866976
tp515
a(F2.749750011478197
F-126.40488722866976
tp516
a(F2.9349561656987513
F-126.86289370342556
tp517
a(F3.0159474179707964
F-127.04322702952508
tp518
a(F3.101887052547995
F-127.22117390035373
tp519
a(F3.192315529765695
F-127.39639916700949
tp520
a(F3.337445018216116
F-127.65454635238407
tp521
a(F3.4375072340103467
F-127.82478733295565
tp522
a(F3.591591387074515
F-128.0784440771199
tp523
a(F3.696950913330782
F-128.2459249962026
tp524
a(F3.8034000425973384
F-128.4128701803118
tp525
a(F3.963892863136814
F-128.66293092638523
tp526
a(F4.178846063675595
F-128.99610801051344
tp527
a(F4.178846063675595
F-128.99610801051344
tp528
a(F4.395260920033098
F-129.32889682296008
tp529
a(F4.44945761863612
F-129.4120005951306
tp530
a(F4.666562794937297
F-129.74354591451367
tp531
a(F4.721290119700433
F-129.82694803833903
tp532
a(F4.939564705143099
F-130.15813421318492
tp533
a(F4.994260606207362
F-130.2409236474524
tp534
a(F5.268630934797064
F-130.653924858026
tp535
a(F5.379028177265093
F-130.8187304408954
tp536
a(F5.490075988984889
F-130.98312267803908
tp537
a(F5.601990407125164
F-131.1469065805832
tp538
a(F5.772349492156421
F-131.39052684712513
tp539
a(F5.887317201917194
F-131.55216945497492
tp540
a(F6.0625130470856705
F-131.79261161408337
tp541
a(F6.182172158069455
F-131.95081517780042
tp542
a(F6.303994365502685
F-132.1073734731948
tp543
a(F6.4920276391707805
F-132.33782860556187
tp544
a(F6.749273191566917
F-132.63970472745848
tp545
a(F6.749273191566917
F-132.63970472745848
tp546
a(F7.0200141056629874
F-132.92873240285294
tp547
a(F7.088893230188915
F-133.00001854336097
tp548
a(F7.369882858539448
F-133.2793672546251
tp549
a(F7.440630147176542
F-133.3487508647917
tp550
a(F7.797068825653199
F-133.69428466824505
tp551
a(F7.797068825653199
F-133.69428466824505
tp552
a(F8.155598452399165
F-134.03845965517544
tp553
a(F8.155598452399165
F-134.03845965517544
tp554
a(F8.516177988197548
F-134.3816849584119
tp555
a(F8.516177988197548
F-134.3816849584119
tp556
a(F8.877699242319654
F-134.72306946280153
tp557
a(F8.877699242319654
F-134.72306946280153
tp558
a(F9.24062356665266
F-135.06311660439047
tp559
a(F9.24062356665266
F-135.06311660439047
tp560
a(F9.531719222685785
F-135.33421258080637
tp561
a(F9.677573428061107
F-135.46934989451438
tp562
a(F9.823649817117111
F-135.60425543342365
tp563
a(F10.043459819933611
F-135.80624114359193
tp564
a(F10.337065118391346
F-136.0748118795746
tp565
a(F10.337065118391346
F-136.0748118795746
tp566
a(F10.631547653079146
F-136.34245003572454
tp567
a(F10.705127115960432
F-136.4092270067335
tp568
a(F11.074764969903931
F-136.74171148366995
tp569
a(F11.074764969903931
F-136.74171148366995
tp570
a(F11.448353428730659
F-137.0690657802707
tp571
a(F11.448353428730659
F-137.0690657802707
tp572
a(F11.828200581171087
F-137.3877560294358
tp573
a(F11.828200581171087
F-137.3877560294358
tp574
a(F12.217312688161808
F-137.69570899479473
tp575
a(F12.217312688161808
F-137.69570899479473
tp576
a(F12.611883460253058
F-137.99765668032023
tp577
a(F12.611883460253058
F-137.99765668032023
tp578
a(F13.007224012531632
F-138.29735842287153
tp579
a(F13.007224012531632
F-138.29735842287153
tp580
a(F13.40424854670142
F-138.5956035328211
tp581
a(F13.40424854670142
F-138.5956035328211
tp582
a(F13.802893416069118
F-138.89239049064102
tp583
a(F13.802893416069118
F-138.89239049064102
tp584
a(F14.12260665100935
F-139.1289541446321
tp585
a(F14.202435762917844
F-139.18805634206376
tp586
a(F14.598858488100248
F-139.48449638039463
tp587
a(F14.598858488100248
F-139.48449638039463
tp588
a(F14.909965731984162
F-139.7232882762544
tp589
a(F14.987322031013553
F-139.78328855193962
tp590
a(F15.373264215567925
F-140.08433166030306
tp591
a(F15.373264215567925
F-140.08433166030306
tp592
a(F15.758968769211057
F-140.38521822970876
tp593
a(F15.758968769211057
F-140.38521822970876
tp594
a(F16.144911195489254
F-140.68627124192577
tp595
a(F16.144911195489254
F-140.68627124192577
tp596
a(F16.53099850828332
F-140.98763400329182
tp597
a(F16.53099850828332
F-140.98763400329182
tp598
a(F16.839882035467344
F-141.22894413711845
tp599
a(F16.91763331996366
F-141.28967656050423
tp600
a(F17.22657242244899
F-141.53058250201158
tp601
a(F17.30388349412214
F-141.59084182976864
tp602
a(F17.6129404089055
F-141.83181077121253
tp603
a(F17.69009750344691
F-141.89200208257546
tp604
a(F17.998688366019017
F-142.1330241211671
tp605
a(F18.07586768715126
F-142.19331126098257
tp606
a(F18.384828593367878
F-142.43466041958075
tp607
a(F18.46206687258823
F-142.49499754389427
tp608
a(F18.771123606698733
F-142.73641769063482
tp609
a(F18.848383389811975
F-142.79677077356214
tp610
a(F19.234997384034127
F-143.09877773888718
tp611
a(F19.234997384034127
F-143.09877773888718
tp612
a(F19.62149321609568
F-143.40066193350523
tp613
a(F19.62149321609568
F-143.40066193350523
tp614
a(F20.008501306104066
F-143.7027693251361
tp615
a(F20.008501306104066
F-143.7027693251361
tp616
a(F20.395506466636217
F-144.00478083939484
tp617
a(F20.395506466636217
F-144.00478083939484
tp618
a(F20.783325177159398
F-144.3069244075559
tp619
a(F20.783325177159398
F-144.3069244075559
tp620
a(F21.172345597460463
F-144.60973583928342
tp621
a(F21.172345597460463
F-144.60973583928342
tp622
a(F21.4837807952666
F-144.8517868878684
tp623
a(F21.561641719513485
F-144.9122895885705
tp624
a(F21.87322544293104
F-145.15434618573613
tp625
a(F21.951104984000708
F-145.21484331464978
tp626
a(F22.262507485822418
F-145.45673366707112
tp627
a(F22.340407750532577
F-145.51723683196875
tp628
a(F22.73007424582346
F-145.81982818472423
tp629
a(F22.73007424582346
F-145.81982818472423
tp630
a(F23.11993591551521
F-146.12254223521558
tp631
a(F23.11993591551521
F-146.12254223521558
tp632
a(F23.431709354381493
F-146.3647264701184
tp633
a(F23.587487011489294
F-146.48577019319075
tp634
a(F23.821426335363064
F-146.66754274645947
tp635
a(F24.0554268596789
F-146.84933340102853
tp636
a(F24.211463962661046
F-146.9705031857978
tp637
a(F24.367643330963467
F-147.0916825005888
tp638
a(F24.52376896566523
F-147.21280898637943
tp639
a(F24.757927395305586
F-147.39464865632974
tp640
a(F24.991554138563995
F-147.57633795575506
tp641
a(F25.069409392561184
F-147.6369409685342
tp642
a(F25.380848394698642
F-147.87974872557035
tp643
a(F25.459149359809537
F-147.9408759304248
tp644
a(F25.77056589276257
F-148.1842774421803
tp645
a(F25.848476316627774
F-148.24517531680323
tp646
a(F26.159396213634043
F-148.48787181834908
tp647
a(F26.23720841006638
F-148.5485703092726
tp648
a(F26.5486055552144
F-148.79134964024874
tp649
a(F26.626446996666946
F-148.85202825866406
tp650
a(F27.01531528899395
F-149.15510417458216
tp651
a(F27.01531528899395
F-149.15510417458216
tp652
a(F27.32727946171109
F-149.3980488378926
tp653
a(F27.405208888447707
F-149.45875365279028
tp654
a(F27.795571755141978
F-149.7627456310663
tp655
a(F27.795571755141978
F-149.7627456310663
tp656
a(F28.18633676049049
F-150.06689094896845
tp657
a(F28.18633676049049
F-150.06689094896845
tp658
a(F28.57735224158358
F-150.3709317104424
tp659
a(F28.733861417374012
F-150.4925887555481
tp660
a(F28.89040210524567
F-150.61426950237157
tp661
a(F29.046916566333696
F-150.73593369771177
tp662
a(F29.28167983740925
F-150.91847596759598
tp663
a(F29.516389951838296
F-151.10114463871247
tp664
a(F29.672912507832752
F-151.22305074176438
tp665
a(F29.829214275499552
F-151.34479715360337
tp666
a(F30.06411503705195
F-151.5274360990813
tp667
a(F30.298999557395053
F-151.7097565804152
tp668
a(F30.455565443159976
F-151.83122617628828
tp669
a(F30.612105881636833
F-151.95269048544793
tp670
a(F30.768187371854573
F-152.0739535966756
tp671
a(F31.00244341554751
F-152.25611203350908
tp672
a(F31.23679920644124
F-152.4383799281011
tp673
a(F31.31491733660853
F-152.49914084668075
tp674
a(F31.705746166105584
F-152.8031981544334
tp675
a(F31.705746166105584
F-152.8031981544334
tp676
a(F32.01825625315717
F-153.04629811257283
tp677
a(F32.0964219826475
F-153.10709696898988
tp678
a(F32.48735062152587
F-153.411137650205
tp679
a(F32.6437114056016
F-153.5327299457775
tp680
a(F32.80013197094868
F-153.65434703557375
tp681
a(F32.95665242647524
F-153.77603647406022
tp682
a(F33.113210857468026
F-153.89776471957546
tp683
a(F33.34784302719374
F-154.08023500850726
tp684
a(F33.58259051162188
F-154.26279633875296
tp685
a(F33.66068897160457
F-154.32352567364663
tp686
a(F33.97396815461143
F-154.56708998200196
tp687
a(F34.052334892360534
F-154.62799129326197
tp688
a(F34.36626889326188
F-154.87180741660313
tp689
a(F34.523769922741074
F-154.99409700632748
tp690
a(F34.75881311355374
F-155.17640652327907
tp691
a(F34.994341431949046
F-155.35896930640718
tp692
a(F35.072907518754576
F-155.4198629391508
tp693
a(F35.30878662507724
F-155.60261773933252
tp694
a(F35.54480418256568
F-155.78538011453963
tp695
a(F35.78077141415037
F-155.96811328893932
tp696
a(F35.93810468810337
F-156.08994788159788
tp697
a(F36.09539012630127
F-156.211746525393
tp698
a(F36.252674579448204
F-156.3335404306246
tp699
a(F36.48861745886598
F-156.5162307842894
tp700
a(F36.803454536343736
F-156.76001474846163
tp701
a(F36.803454536343736
F-156.76001474846163
tp702
a(F37.19698222956477
F-157.06469076788775
tp703
a(F37.19698222956477
F-157.06469076788775
tp704
a(F37.59038478888713
F-157.36933072036857
tp705
a(F37.59038478888713
F-157.36933072036857
tp706
a(F37.983473459899365
F-157.6738975602855
tp707
a(F37.983473459899365
F-157.6738975602855
tp708
a(F38.298243866412555
F-157.91774094077692
tp709
a(F38.376977408054806
F-157.9787269603912
tp710
a(F38.77091708550766
F-158.2836919006858
tp711
a(F38.77091708550766
F-158.2836919006858
tp712
a(F39.16493044386627
F-158.58877725606305
tp713
a(F39.16545545256703
F-158.58918389519678
tp714
a(F39.47955191401899
F-158.83295189752187
tp715
a(F39.55804609988379
F-158.8938919947344
tp716
a(F39.95189632955501
F-159.19796075808702
tp717
a(F39.95189632955501
F-159.19796075808702
tp718
a(F40.26659303340706
F-159.43610115918398
tp719
a(F40.34564907782134
F-159.4948630987443
tp720
a(F40.74701116954542
F-159.78158969045018
tp721
a(F40.74701116954542
F-159.78158969045018
tp722
a(F41.15735153590333
F-160.05487164729618
tp723
a(F41.15735153590333
F-160.05487164729618
tp724
a(F41.574971350445125
F-160.31771273473652
tp725
a(F41.574971350445125
F-160.31771273473652
tp726
a(F41.995157663146436
F-160.57839522217034
tp727
a(F41.995157663146436
F-160.57839522217034
tp728
a(F42.33196305676856
F-160.78598256791724
tp729
a(F42.416225285394
F-160.8378397247211
tp730
a(F42.75383144687196
F-161.04524022327826
tp731
a(F42.838255730569344
F-161.09701162339076
tp732
a(F43.176139294990826
F-161.3028534833164
tp733
a(F43.260506959507495
F-161.35398018324582
tp734
a(F43.59953091983219
F-161.55850548327928
tp735
a(F43.68369962554556
F-161.6092363019883
tp736
a(F44.10577453578195
F-161.86360063353956
tp737
a(F44.10577453578195
F-161.86360063353956
tp738
a(F44.44349532793442
F-162.06615313301847
tp739
a(F44.52800635037364
F-162.11674363275782
tp740
a(F44.95096512244371
F-162.36901115688727
tp741
a(F44.95096512244371
F-162.36901115688727
tp742
a(F45.37484996501044
F-162.6204583493147
tp743
a(F45.37484996501044
F-162.6204583493147
tp744
a(F45.79934741212093
F-162.8708092474796
tp745
a(F45.79934741212093
F-162.8708092474796
tp746
a(F46.22584743026876
F-163.11713651833733
tp747
a(F46.22584743026876
F-163.11713651833733
tp748
a(F46.65635593431769
F-163.35578376816594
tp749
a(F46.65635593431769
F-163.35578376816594
tp750
a(F47.09243059553639
F-163.58458496694723
tp751
a(F47.26912355496477
F-163.67151092831725
tp752
a(F47.44723000653245
F-163.7557925686054
tp753
a(F47.6264310929645
F-163.83771545181816
tp754
a(F47.89890702725557
F-163.9522234969477
tp755
a(F48.17452262341868
F-164.05820949933994
tp756
a(F48.358642248590364
F-164.12558172841418
tp757
a(F48.54438582377252
F-164.18799835447734
tp758
a(F48.73174217654298
F-164.24722546647433
tp759
a(F49.01531858326758
F-164.33080594855664
tp760
a(F49.39517876497866
F-164.43903877625112
tp761
a(F49.39517876497866
F-164.43903877625112
tp762
a(F49.77801798707595
F-164.545092599265
tp763
a(F49.87377491299095
F-164.57137526626173
tp764
a(F50.2566155766019
F-164.67514800918013
tp765
a(F50.35268662300916
F-164.70086814547605
tp766
a(F50.73738835231979
F-164.80064183548023
tp767
a(F50.833773001812325
F-164.82505400289742
tp768
a(F51.31733915120336
F-164.93981780829537
tp769
a(F51.31733915120336
F-164.93981780829537
tp770
a(F51.70607993519009
F-165.02165388884472
tp771
a(F51.80352082649311
F-165.0410136016774
tp772
a(F52.1950071584132
F-165.10957462311976
tp773
a(F52.2930911226317
F-165.12519379525847
tp774
a(F52.786204490439886
F-165.18629897831318
tp775
a(F52.786204490439886
F-165.18629897831318
tp776
a(F53.28133475328971
F-165.22188920288843
tp777
a(F53.28133475328971
F-165.22188920288843
tp778
a(F53.77737085135783
F-165.2280692930414
tp779
a(F53.77737085135783
F-165.2280692930414
tp780
a(F54.272675921579044
F-165.19984443459646
tp781
a(F54.272675921579044
F-165.19984443459646
tp782
a(F54.76393591302981
F-165.13159491199193
tp783
a(F54.76393591302981
F-165.13159491199193
tp784
a(F55.24523610496164
F-165.0154855060162
tp785
a(F55.245829381459345
F-165.01532527456797
tp786
a(F55.702083964081815
F-164.83878958106476
tp787
a(F55.702083964081815
F-164.83878958106476
tp788
a(F56.03797476607839
F-164.64369300758116
tp789
a(F56.118155152988976
F-164.5895347833798
tp790
a(F56.40842505476793
F-164.34433429185106
tp791
a(F56.4786576461181
F-164.27873213783835
tp792
a(F56.75926423441492
F-163.97416354059558
tp793
a(F56.75926423441492
F-163.97416354059558
tp794
a(F56.91760644769077
F-163.78960786660303
tp795
a(F56.95075982779008
F-163.75088706852418
tp796
a(F57.03790652275976
F-163.65003337105145
tp797
a(F57.053431645303164
F-163.63211285797783
tp798
a(F57.053602827090955
F-163.63191410344604
tp799
a(F57.053602827090955
F-163.63191410344604
tp800
a(F57.053602827090955
F-163.63191410344604
tp801
a(F57.053602827090955
F-163.63191410344604
tp802
a(F57.053602827090955
F-163.63191410344604
tp803
a(F57.053602827090955
F-163.63191410344604
tp804
a(F57.053602827090955
F-163.63191410344604
tp805
a(F57.053602827090955
F-163.63191410344604
tp806
a(F57.053602827090955
F-163.63191410344604
tp807
a(F57.053602827090955
F-163.63191410344604
tp808
a(F57.053602827090955
F-163.63191410344604
tp809
a(F57.053602827090955
F-163.63191410344604
tp810
a(F57.053602827090955
F-163.63191410344604
tp811
a(F57.053602827090955
F-163.63191410344604
tp812
a(F57.053602827090955
F-163.63191410344604
tp813
a(F57.053602827090955
F-163.63191410344604
tp814
a(F57.053602827090955
F-163.63191410344604
tp815
a(F57.053602827090955
F-163.63191410344604
tp816
a(F57.053602827090955
F-163.63191410344604
tp817
a(F57.053602827090955
F-163.63191410344604
tp818
a(F57.053602827090955
F-163.63191410344604
tp819
a(F57.053602827090955
F-163.63191410344604
tp820
a(F57.053602827090955
F-163.63191410344604
tp821
a(F57.053602827090955
F-163.63191410344604
tp822
a(F57.053602827090955
F-163.63191410344604
tp823
a(F57.053602827090955
F-163.63191410344604
tp824
a(F57.053602827090955
F-163.63191410344604
tp825
a(F57.053602827090955
F-163.63191410344604
tp826
a(F57.053602827090955
F-163.63191410344604
tp827
a(F57.053602827090955
F-163.63191410344604
tp828
a(F57.053602827090955
F-163.63191410344604
tp829
a(F57.053602827090955
F-163.63191410344604
tp830
a(F57.053602827090955
F-163.63191410344604
tp831
a(F57.053602827090955
F-163.63191410344604
tp832
a(F57.053602827090955
F-163.63191410344604
tp833
a(F57.053602827090955
F-163.63191410344604
tp834
a(F57.053602827090955
F-163.63191410344604
tp835
a(F57.053602827090955
F-163.63191410344604
tp836
a(F57.053602827090955
F-163.63191410344604
tp837
a(F57.053602827090955
F-163.63191410344604
tp838
a(F57.053602827090955
F-163.63191410344604
tp839
a(F57.053602827090955
F-163.63191410344604
tp840
a(F57.053602827090955
F-163.63191410344604
tp841
a(F57.053602827090955
F-163.63191410344604
tp842
a(F57.053602827090955
F-163.63191410344604
tp843
a(F57.053602827090955
F-163.63191410344604
tp844
a(F57.053602827090955
F-163.63191410344604
tp845
a(F57.053602827090955
F-163.63191410344604
tp846
a(F57.053602827090955
F-163.63191410344604
tp847
a(F57.053602827090955
F-163.63191410344604
tp848
a(F57.053602827090955
F-163.63191410344604
tp849
a(F57.053602827090955
F-163.63191410344604
tp850
a(F57.053602827090955
F-163.63191410344604
tp851
a(F57.053602827090955
F-163.63191410344604
tp852
a(F57.053602827090955
F-163.63191410344604
tp853
a(F57.053602827090955
F-163.63191410344604
tp854
a(F57.053602827090955
F-163.63191410344604
tp855
a(F57.053602827090955
F-163.63191410344604
tp856
a(F57.053602827090955
F-163.63191410344604
tp857
a(F57.053602827090955
F-163.63191410344604
tp858
a(F57.053602827090955
F-163.63191410344604
tp859
a(F57.053602827090955
F-163.63191410344604
tp860
a(F57.053602827090955
F-163.63191410344604
tp861
a.